(lp1
(lp2
(lp3
I18
accopy_reg
_reconstructor
p4
(csklearn.ensemble.forest
ExtraTreesClassifier
p5
c__builtin__
object
p6
NtRp7
(dp8
S'warm_start'
p9
I00
sS'base_estimator'
p10
g4
(csklearn.tree.tree
ExtraTreeClassifier
p11
g6
NtRp12
(dp13
S'presort'
p14
I00
sS'splitter'
p15
S'random'
p16
sS'min_impurity_decrease'
p17
F0
sS'min_impurity_split'
p18
NsS'min_samples_leaf'
p19
I1
sS'max_features'
p20
S'auto'
p21
sS'random_state'
p22
NsS'criterion'
p23
S'gini'
p24
sS'min_weight_fraction_leaf'
p25
F0
sS'max_leaf_nodes'
p26
NsS'min_samples_split'
p27
I2
sS'_sklearn_version'
p28
S'0.20.4'
p29
sS'max_depth'
p30
NsS'class_weight'
p31
NsbsS'n_jobs'
p32
Nsg17
F0
sS'verbose'
p33
I0
sg26
NsS'bootstrap'
p34
I00
sS'oob_score'
p35
I00
sg19
I1
sS'n_estimators'
p36
I100
sg27
I2
sg25
F0
sg23
g24
sS'estimator_params'
p37
(S'criterion'
S'max_depth'
S'min_samples_split'
S'min_samples_leaf'
S'min_weight_fraction_leaf'
S'max_features'
S'max_leaf_nodes'
S'min_impurity_decrease'
S'min_impurity_split'
S'random_state'
tp38
sg22
Nsg18
Nsg20
g21
sg28
g29
sg30
Nsg31
Nsbacnumpy.core.multiarray
_reconstruct
p39
(cnumpy
ndarray
p40
(I0
tS'b'
tRp41
(I1
(I3
tcnumpy
dtype
p42
(S'f8'
I0
I1
tRp43
(I3
S'<'
NNNI-1
I-1
I0
tbI00
S']t\xd1E\x17]\xec?]t\xd1E\x17]\xec?\x12w\xc4\x1dqG\xec?'
tbaa(lp44
I951
ag4
(g5
g6
NtRp45
(dp46
S'warm_start'
p47
I00
sS'base_estimator'
p48
g4
(g11
g6
NtRp49
(dp50
S'presort'
p51
I00
sS'splitter'
p52
S'random'
p53
sS'min_impurity_decrease'
p54
F0
sS'min_impurity_split'
p55
NsS'min_samples_leaf'
p56
I1
sS'max_features'
p57
S'auto'
p58
sS'random_state'
p59
NsS'criterion'
p60
S'gini'
p61
sS'min_weight_fraction_leaf'
p62
F0
sS'max_leaf_nodes'
p63
NsS'min_samples_split'
p64
I2
sg28
g29
sS'max_depth'
p65
NsS'class_weight'
p66
NsbsS'n_jobs'
p67
Nsg54
F0
sS'verbose'
p68
I0
sg63
NsS'bootstrap'
p69
I00
sS'oob_score'
p70
I00
sg56
I1
sS'n_estimators'
p71
I100
sg64
I2
sg62
F0
sg60
g61
sS'estimator_params'
p72
(S'criterion'
S'max_depth'
S'min_samples_split'
S'min_samples_leaf'
S'min_weight_fraction_leaf'
S'max_features'
S'max_leaf_nodes'
S'min_impurity_decrease'
S'min_impurity_split'
S'random_state'
tp73
sg59
Nsg55
Nsg57
g58
sg28
g29
sg65
Nsg66
Nsbag39
(g40
(I0
tS'b'
tRp74
(I1
(I3
tg42
(S'f8'
I0
I1
tRp75
(I3
S'<'
NNNI-1
I-1
I0
tbI00
S'\xbc\xbb\xbb\xbb\xbb\xbb\xeb?\x12w\xc4\x1dqG\xec?\x12w\xc4\x1dqG\xec?'
tbaa(lp76
I777
ag4
(g5
g6
NtRp77
(dp78
S'warm_start'
p79
I00
sS'base_estimator'
p80
g4
(g11
g6
NtRp81
(dp82
S'presort'
p83
I00
sS'splitter'
p84
S'random'
p85
sS'min_impurity_decrease'
p86
F0
sS'min_impurity_split'
p87
NsS'min_samples_leaf'
p88
I1
sS'max_features'
p89
S'auto'
p90
sS'random_state'
p91
NsS'criterion'
p92
S'gini'
p93
sS'min_weight_fraction_leaf'
p94
F0
sS'max_leaf_nodes'
p95
NsS'min_samples_split'
p96
I2
sg28
g29
sS'max_depth'
p97
NsS'class_weight'
p98
NsbsS'n_jobs'
p99
Nsg86
F0
sS'verbose'
p100
I0
sg95
NsS'bootstrap'
p101
I00
sS'oob_score'
p102
I00
sg88
I1
sS'n_estimators'
p103
I100
sg96
I2
sg94
F0
sg92
g93
sS'estimator_params'
p104
(S'criterion'
S'max_depth'
S'min_samples_split'
S'min_samples_leaf'
S'min_weight_fraction_leaf'
S'max_features'
S'max_leaf_nodes'
S'min_impurity_decrease'
S'min_impurity_split'
S'random_state'
tp105
sg91
Nsg87
Nsg89
g90
sg28
g29
sg97
Nsg98
Nsbag39
(g40
(I0
tS'b'
tRp106
(I1
(I3
tg42
(S'f8'
I0
I1
tRp107
(I3
S'<'
NNNI-1
I-1
I0
tbI00
S'\xbc\xbb\xbb\xbb\xbb\xbb\xeb?\x12w\xc4\x1dqG\xec?\x12w\xc4\x1dqG\xec?'
tbaa(lp108
I600
ag4
(g5
g6
NtRp109
(dp110
S'warm_start'
p111
I00
sS'base_estimator'
p112
g4
(g11
g6
NtRp113
(dp114
S'presort'
p115
I00
sS'splitter'
p116
S'random'
p117
sS'min_impurity_decrease'
p118
F0
sS'min_impurity_split'
p119
NsS'min_samples_leaf'
p120
I1
sS'max_features'
p121
S'auto'
p122
sS'random_state'
p123
NsS'criterion'
p124
S'gini'
p125
sS'min_weight_fraction_leaf'
p126
F0
sS'max_leaf_nodes'
p127
NsS'min_samples_split'
p128
I2
sg28
g29
sS'max_depth'
p129
NsS'class_weight'
p130
NsbsS'n_jobs'
p131
Nsg118
F0
sS'verbose'
p132
I0
sg127
NsS'bootstrap'
p133
I00
sS'oob_score'
p134
I00
sg120
I1
sS'n_estimators'
p135
I100
sg128
I2
sg126
F0
sg124
g125
sS'estimator_params'
p136
(S'criterion'
S'max_depth'
S'min_samples_split'
S'min_samples_leaf'
S'min_weight_fraction_leaf'
S'max_features'
S'max_leaf_nodes'
S'min_impurity_decrease'
S'min_impurity_split'
S'random_state'
tp137
sg123
Nsg119
Nsg121
g122
sg28
g29
sg129
Nsg130
Nsbag39
(g40
(I0
tS'b'
tRp138
(I1
(I3
tg42
(S'f8'
I0
I1
tRp139
(I3
S'<'
NNNI-1
I-1
I0
tbI00
S'\x00\x00\x00\x00\x00\x00\xe8?\xba\xe8\xa2\x8b.\xba\xe8?\xc4\x1dqG\xdc\x11\xe7?'
tbaa(lp140
I515
ag4
(g5
g6
NtRp141
(dp142
S'warm_start'
p143
I00
sS'base_estimator'
p144
g4
(g11
g6
NtRp145
(dp146
S'presort'
p147
I00
sS'splitter'
p148
S'random'
p149
sS'min_impurity_decrease'
p150
F0
sS'min_impurity_split'
p151
NsS'min_samples_leaf'
p152
I1
sS'max_features'
p153
S'auto'
p154
sS'random_state'
p155
NsS'criterion'
p156
S'gini'
p157
sS'min_weight_fraction_leaf'
p158
F0
sS'max_leaf_nodes'
p159
NsS'min_samples_split'
p160
I2
sg28
g29
sS'max_depth'
p161
NsS'class_weight'
p162
NsbsS'n_jobs'
p163
Nsg150
F0
sS'verbose'
p164
I0
sg159
NsS'bootstrap'
p165
I00
sS'oob_score'
p166
I00
sg152
I1
sS'n_estimators'
p167
I100
sg160
I2
sg158
F0
sg156
g157
sS'estimator_params'
p168
(S'criterion'
S'max_depth'
S'min_samples_split'
S'min_samples_leaf'
S'min_weight_fraction_leaf'
S'max_features'
S'max_leaf_nodes'
S'min_impurity_decrease'
S'min_impurity_split'
S'random_state'
tp169
sg155
Nsg151
Nsg153
g154
sg28
g29
sg161
Nsg162
Nsbag39
(g40
(I0
tS'b'
tRp170
(I1
(I3
tg42
(S'f8'
I0
I1
tRp171
(I3
S'<'
NNNI-1
I-1
I0
tbI00
S'\xa3\x8b.\xba\xe8\xa2\xe3?]t\xd1E\x17]\xe4?\x06}A_\xd0\x17\xe4?'
tbaa(lp172
I516
ag4
(g5
g6
NtRp173
(dp174
S'warm_start'
p175
I00
sS'base_estimator'
p176
g4
(g11
g6
NtRp177
(dp178
S'presort'
p179
I00
sS'splitter'
p180
S'random'
p181
sS'min_impurity_decrease'
p182
F0
sS'min_impurity_split'
p183
NsS'min_samples_leaf'
p184
I1
sS'max_features'
p185
S'auto'
p186
sS'random_state'
p187
NsS'criterion'
p188
S'gini'
p189
sS'min_weight_fraction_leaf'
p190
F0
sS'max_leaf_nodes'
p191
NsS'min_samples_split'
p192
I2
sg28
g29
sS'max_depth'
p193
NsS'class_weight'
p194
NsbsS'n_jobs'
p195
Nsg182
F0
sS'verbose'
p196
I0
sg191
NsS'bootstrap'
p197
I00
sS'oob_score'
p198
I00
sg184
I1
sS'n_estimators'
p199
I100
sg192
I2
sg190
F0
sg188
g189
sS'estimator_params'
p200
(S'criterion'
S'max_depth'
S'min_samples_split'
S'min_samples_leaf'
S'min_weight_fraction_leaf'
S'max_features'
S'max_leaf_nodes'
S'min_impurity_decrease'
S'min_impurity_split'
S'random_state'
tp201
sg187
Nsg183
Nsg185
g186
sg28
g29
sg193
Nsg194
Nsbag39
(g40
(I0
tS'b'
tRp202
(I1
(I3
tg42
(S'f8'
I0
I1
tRp203
(I3
S'<'
NNNI-1
I-1
I0
tbI00
S'\xe9\xa2\x8b.\xba\xe8\xea?\xe9\xa2\x8b.\xba\xe8\xea?\xe2\x8e\xb8#\xee\x88\xeb?'
tbaa(lp204
I386
ag4
(g5
g6
NtRp205
(dp206
S'warm_start'
p207
I00
sS'base_estimator'
p208
g4
(g11
g6
NtRp209
(dp210
S'presort'
p211
I00
sS'splitter'
p212
S'random'
p213
sS'min_impurity_decrease'
p214
F0
sS'min_impurity_split'
p215
NsS'min_samples_leaf'
p216
I1
sS'max_features'
p217
S'auto'
p218
sS'random_state'
p219
NsS'criterion'
p220
S'gini'
p221
sS'min_weight_fraction_leaf'
p222
F0
sS'max_leaf_nodes'
p223
NsS'min_samples_split'
p224
I2
sg28
g29
sS'max_depth'
p225
NsS'class_weight'
p226
NsbsS'n_jobs'
p227
Nsg214
F0
sS'verbose'
p228
I0
sg223
NsS'bootstrap'
p229
I00
sS'oob_score'
p230
I00
sg216
I1
sS'n_estimators'
p231
I100
sg224
I2
sg222
F0
sg220
g221
sS'estimator_params'
p232
(S'criterion'
S'max_depth'
S'min_samples_split'
S'min_samples_leaf'
S'min_weight_fraction_leaf'
S'max_features'
S'max_leaf_nodes'
S'min_impurity_decrease'
S'min_impurity_split'
S'random_state'
tp233
sg219
Nsg215
Nsg217
g218
sg28
g29
sg225
Nsg226
Nsbag39
(g40
(I0
tS'b'
tRp234
(I1
(I3
tg42
(S'f8'
I0
I1
tRp235
(I3
S'<'
NNNI-1
I-1
I0
tbI00
S'\xe9\xa2\x8b.\xba\xe8\xea?\xe9\xa2\x8b.\xba\xe8\xea?\xe2\x8e\xb8#\xee\x88\xeb?'
tbaa(lp236
I517
ag4
(g5
g6
NtRp237
(dp238
S'warm_start'
p239
I00
sS'base_estimator'
p240
g4
(g11
g6
NtRp241
(dp242
S'presort'
p243
I00
sS'splitter'
p244
S'random'
p245
sS'min_impurity_decrease'
p246
F0
sS'min_impurity_split'
p247
NsS'min_samples_leaf'
p248
I1
sS'max_features'
p249
S'auto'
p250
sS'random_state'
p251
NsS'criterion'
p252
S'gini'
p253
sS'min_weight_fraction_leaf'
p254
F0
sS'max_leaf_nodes'
p255
NsS'min_samples_split'
p256
I2
sg28
g29
sS'max_depth'
p257
NsS'class_weight'
p258
NsbsS'n_jobs'
p259
Nsg246
F0
sS'verbose'
p260
I0
sg255
NsS'bootstrap'
p261
I00
sS'oob_score'
p262
I00
sg248
I1
sS'n_estimators'
p263
I100
sg256
I2
sg254
F0
sg252
g253
sS'estimator_params'
p264
(S'criterion'
S'max_depth'
S'min_samples_split'
S'min_samples_leaf'
S'min_weight_fraction_leaf'
S'max_features'
S'max_leaf_nodes'
S'min_impurity_decrease'
S'min_impurity_split'
S'random_state'
tp265
sg251
Nsg247
Nsg249
g250
sg28
g29
sg257
Nsg258
Nsbag39
(g40
(I0
tS'b'
tRp266
(I1
(I3
tg42
(S'f8'
I0
I1
tRp267
(I3
S'<'
NNNI-1
I-1
I0
tbI00
S'\xba\xe8\xa2\x8b.\xba\xe8?\xba\xe8\xa2\x8b.\xba\xe8?S\xd6\x945eM\xe9?'
tbaa(lp268
I673
ag4
(g5
g6
NtRp269
(dp270
S'warm_start'
p271
I00
sS'base_estimator'
p272
g4
(g11
g6
NtRp273
(dp274
S'presort'
p275
I00
sS'splitter'
p276
S'random'
p277
sS'min_impurity_decrease'
p278
F0
sS'min_impurity_split'
p279
NsS'min_samples_leaf'
p280
I1
sS'max_features'
p281
S'auto'
p282
sS'random_state'
p283
NsS'criterion'
p284
S'gini'
p285
sS'min_weight_fraction_leaf'
p286
F0
sS'max_leaf_nodes'
p287
NsS'min_samples_split'
p288
I2
sg28
g29
sS'max_depth'
p289
NsS'class_weight'
p290
NsbsS'n_jobs'
p291
Nsg278
F0
sS'verbose'
p292
I0
sg287
NsS'bootstrap'
p293
I00
sS'oob_score'
p294
I00
sg280
I1
sS'n_estimators'
p295
I100
sg288
I2
sg286
F0
sg284
g285
sS'estimator_params'
p296
(S'criterion'
S'max_depth'
S'min_samples_split'
S'min_samples_leaf'
S'min_weight_fraction_leaf'
S'max_features'
S'max_leaf_nodes'
S'min_impurity_decrease'
S'min_impurity_split'
S'random_state'
tp297
sg283
Nsg279
Nsg281
g282
sg28
g29
sg289
Nsg290
Nsbag39
(g40
(I0
tS'b'
tRp298
(I1
(I3
tg42
(S'f8'
I0
I1
tRp299
(I3
S'<'
NNNI-1
I-1
I0
tbI00
S'\xf5I\x9f\xf4I\x9f\xe4?\x955eMYS\xe6?\xc4\x1dqG\xdc\x11\xe7?'
tbaa(lp300
I529
ag4
(g5
g6
NtRp301
(dp302
S'warm_start'
p303
I00
sS'base_estimator'
p304
g4
(g11
g6
NtRp305
(dp306
S'presort'
p307
I00
sS'splitter'
p308
S'random'
p309
sS'min_impurity_decrease'
p310
F0
sS'min_impurity_split'
p311
NsS'min_samples_leaf'
p312
I1
sS'max_features'
p313
S'auto'
p314
sS'random_state'
p315
NsS'criterion'
p316
S'gini'
p317
sS'min_weight_fraction_leaf'
p318
F0
sS'max_leaf_nodes'
p319
NsS'min_samples_split'
p320
I2
sg28
g29
sS'max_depth'
p321
NsS'class_weight'
p322
NsbsS'n_jobs'
p323
Nsg310
F0
sS'verbose'
p324
I0
sg319
NsS'bootstrap'
p325
I00
sS'oob_score'
p326
I00
sg312
I1
sS'n_estimators'
p327
I100
sg320
I2
sg318
F0
sg316
g317
sS'estimator_params'
p328
(S'criterion'
S'max_depth'
S'min_samples_split'
S'min_samples_leaf'
S'min_weight_fraction_leaf'
S'max_features'
S'max_leaf_nodes'
S'min_impurity_decrease'
S'min_impurity_split'
S'random_state'
tp329
sg315
Nsg311
Nsg313
g314
sg28
g29
sg321
Nsg322
Nsbag39
(g40
(I0
tS'b'
tRp330
(I1
(I3
tg42
(S'f8'
I0
I1
tRp331
(I3
S'<'
NNNI-1
I-1
I0
tbI00
S'\xe9\xa2\x8b.\xba\xe8\xe2?\x17]t\xd1E\x17\xe5?eMYS\xd6\x94\xe5?'
tbaa(lp332
I160
ag4
(g5
g6
NtRp333
(dp334
S'warm_start'
p335
I00
sS'base_estimator'
p336
g4
(g11
g6
NtRp337
(dp338
S'presort'
p339
I00
sS'splitter'
p340
S'random'
p341
sS'min_impurity_decrease'
p342
F0
sS'min_impurity_split'
p343
NsS'min_samples_leaf'
p344
I1
sS'max_features'
p345
S'auto'
p346
sS'random_state'
p347
NsS'criterion'
p348
S'gini'
p349
sS'min_weight_fraction_leaf'
p350
F0
sS'max_leaf_nodes'
p351
NsS'min_samples_split'
p352
I2
sg28
g29
sS'max_depth'
p353
NsS'class_weight'
p354
NsbsS'n_jobs'
p355
Nsg342
F0
sS'verbose'
p356
I0
sg351
NsS'bootstrap'
p357
I00
sS'oob_score'
p358
I00
sg344
I1
sS'n_estimators'
p359
I100
sg352
I2
sg350
F0
sg348
g349
sS'estimator_params'
p360
(S'criterion'
S'max_depth'
S'min_samples_split'
S'min_samples_leaf'
S'min_weight_fraction_leaf'
S'max_features'
S'max_leaf_nodes'
S'min_impurity_decrease'
S'min_impurity_split'
S'random_state'
tp361
sg347
Nsg343
Nsg345
g346
sg28
g29
sg353
Nsg354
Nsbag39
(g40
(I0
tS'b'
tRp362
(I1
(I3
tg42
(S'f8'
I0
I1
tRp363
(I3
S'<'
NNNI-1
I-1
I0
tbI00
S'\xe9\xa2\x8b.\xba\xe8\xe2?]t\xd1E\x17]\xe4?G\xdc\x11w\xc4\x1d\xe1?'
tbaa(lp364
I633
ag4
(g5
g6
NtRp365
(dp366
S'warm_start'
p367
I00
sS'base_estimator'
p368
g4
(g11
g6
NtRp369
(dp370
S'presort'
p371
I00
sS'splitter'
p372
S'random'
p373
sS'min_impurity_decrease'
p374
F0
sS'min_impurity_split'
p375
NsS'min_samples_leaf'
p376
I1
sS'max_features'
p377
S'auto'
p378
sS'random_state'
p379
NsS'criterion'
p380
S'gini'
p381
sS'min_weight_fraction_leaf'
p382
F0
sS'max_leaf_nodes'
p383
NsS'min_samples_split'
p384
I2
sg28
g29
sS'max_depth'
p385
NsS'class_weight'
p386
NsbsS'n_jobs'
p387
Nsg374
F0
sS'verbose'
p388
I0
sg383
NsS'bootstrap'
p389
I00
sS'oob_score'
p390
I00
sg376
I1
sS'n_estimators'
p391
I100
sg384
I2
sg382
F0
sg380
g381
sS'estimator_params'
p392
(S'criterion'
S'max_depth'
S'min_samples_split'
S'min_samples_leaf'
S'min_weight_fraction_leaf'
S'max_features'
S'max_leaf_nodes'
S'min_impurity_decrease'
S'min_impurity_split'
S'random_state'
tp393
sg379
Nsg375
Nsg377
g378
sg28
g29
sg385
Nsg386
Nsbag39
(g40
(I0
tS'b'
tRp394
(I1
(I3
tg42
(S'f8'
I0
I1
tRp395
(I3
S'<'
NNNI-1
I-1
I0
tbI00
S']t\xd1E\x17]\xec?]t\xd1E\x17]\xec?\x12w\xc4\x1dqG\xec?'
tbaa(lp396
I341
ag4
(g5
g6
NtRp397
(dp398
S'warm_start'
p399
I00
sS'base_estimator'
p400
g4
(g11
g6
NtRp401
(dp402
S'presort'
p403
I00
sS'splitter'
p404
S'random'
p405
sS'min_impurity_decrease'
p406
F0
sS'min_impurity_split'
p407
NsS'min_samples_leaf'
p408
I1
sS'max_features'
p409
S'auto'
p410
sS'random_state'
p411
NsS'criterion'
p412
S'gini'
p413
sS'min_weight_fraction_leaf'
p414
F0
sS'max_leaf_nodes'
p415
NsS'min_samples_split'
p416
I2
sg28
g29
sS'max_depth'
p417
NsS'class_weight'
p418
NsbsS'n_jobs'
p419
Nsg406
F0
sS'verbose'
p420
I0
sg415
NsS'bootstrap'
p421
I00
sS'oob_score'
p422
I00
sg408
I1
sS'n_estimators'
p423
I100
sg416
I2
sg414
F0
sg412
g413
sS'estimator_params'
p424
(S'criterion'
S'max_depth'
S'min_samples_split'
S'min_samples_leaf'
S'min_weight_fraction_leaf'
S'max_features'
S'max_leaf_nodes'
S'min_impurity_decrease'
S'min_impurity_split'
S'random_state'
tp425
sg411
Nsg407
Nsg409
g410
sg28
g29
sg417
Nsg418
Nsbag39
(g40
(I0
tS'b'
tRp426
(I1
(I3
tg42
(S'f8'
I0
I1
tRp427
(I3
S'<'
NNNI-1
I-1
I0
tbI00
S'F\x17]t\xd1E\xe7?F\x17]t\xd1E\xe7?\x955eMYS\xe6?'
tbaa(lp428
I331
ag4
(g5
g6
NtRp429
(dp430
S'warm_start'
p431
I00
sS'base_estimator'
p432
g4
(g11
g6
NtRp433
(dp434
S'presort'
p435
I00
sS'splitter'
p436
S'random'
p437
sS'min_impurity_decrease'
p438
F0
sS'min_impurity_split'
p439
NsS'min_samples_leaf'
p440
I1
sS'max_features'
p441
S'auto'
p442
sS'random_state'
p443
NsS'criterion'
p444
S'gini'
p445
sS'min_weight_fraction_leaf'
p446
F0
sS'max_leaf_nodes'
p447
NsS'min_samples_split'
p448
I2
sg28
g29
sS'max_depth'
p449
NsS'class_weight'
p450
NsbsS'n_jobs'
p451
Nsg438
F0
sS'verbose'
p452
I0
sg447
NsS'bootstrap'
p453
I00
sS'oob_score'
p454
I00
sg440
I1
sS'n_estimators'
p455
I100
sg448
I2
sg446
F0
sg444
g445
sS'estimator_params'
p456
(S'criterion'
S'max_depth'
S'min_samples_split'
S'min_samples_leaf'
S'min_weight_fraction_leaf'
S'max_features'
S'max_leaf_nodes'
S'min_impurity_decrease'
S'min_impurity_split'
S'random_state'
tp457
sg443
Nsg439
Nsg441
g442
sg28
g29
sg449
Nsg450
Nsbag39
(g40
(I0
tS'b'
tRp458
(I1
(I3
tg42
(S'f8'
I0
I1
tRp459
(I3
S'<'
NNNI-1
I-1
I0
tbI00
S']t\xd1E\x17]\xe4?\x00\x00\x00\x00\x00\x00\xe0?\x12w\xc4\x1dqG\xdc?'
tbaa(lp460
I433
ag4
(g5
g6
NtRp461
(dp462
S'warm_start'
p463
I00
sS'base_estimator'
p464
g4
(g11
g6
NtRp465
(dp466
S'presort'
p467
I00
sS'splitter'
p468
S'random'
p469
sS'min_impurity_decrease'
p470
F0
sS'min_impurity_split'
p471
NsS'min_samples_leaf'
p472
I1
sS'max_features'
p473
S'auto'
p474
sS'random_state'
p475
NsS'criterion'
p476
S'gini'
p477
sS'min_weight_fraction_leaf'
p478
F0
sS'max_leaf_nodes'
p479
NsS'min_samples_split'
p480
I2
sg28
g29
sS'max_depth'
p481
NsS'class_weight'
p482
NsbsS'n_jobs'
p483
Nsg470
F0
sS'verbose'
p484
I0
sg479
NsS'bootstrap'
p485
I00
sS'oob_score'
p486
I00
sg472
I1
sS'n_estimators'
p487
I100
sg480
I2
sg478
F0
sg476
g477
sS'estimator_params'
p488
(S'criterion'
S'max_depth'
S'min_samples_split'
S'min_samples_leaf'
S'min_weight_fraction_leaf'
S'max_features'
S'max_leaf_nodes'
S'min_impurity_decrease'
S'min_impurity_split'
S'random_state'
tp489
sg475
Nsg471
Nsg473
g474
sg28
g29
sg481
Nsg482
Nsbag39
(g40
(I0
tS'b'
tRp490
(I1
(I3
tg42
(S'f8'
I0
I1
tRp491
(I3
S'<'
NNNI-1
I-1
I0
tbI00
S']t\xd1E\x17]\xe4?\xd1E\x17]t\xd1\xe5?eMYS\xd6\x94\xe5?'
tbaa(lp492
I1026
ag4
(g5
g6
NtRp493
(dp494
S'warm_start'
p495
I00
sS'base_estimator'
p496
g4
(g11
g6
NtRp497
(dp498
S'presort'
p499
I00
sS'splitter'
p500
S'random'
p501
sS'min_impurity_decrease'
p502
F0
sS'min_impurity_split'
p503
NsS'min_samples_leaf'
p504
I1
sS'max_features'
p505
S'auto'
p506
sS'random_state'
p507
NsS'criterion'
p508
S'gini'
p509
sS'min_weight_fraction_leaf'
p510
F0
sS'max_leaf_nodes'
p511
NsS'min_samples_split'
p512
I2
sg28
g29
sS'max_depth'
p513
NsS'class_weight'
p514
NsbsS'n_jobs'
p515
Nsg502
F0
sS'verbose'
p516
I0
sg511
NsS'bootstrap'
p517
I00
sS'oob_score'
p518
I00
sg504
I1
sS'n_estimators'
p519
I100
sg512
I2
sg510
F0
sg508
g509
sS'estimator_params'
p520
(S'criterion'
S'max_depth'
S'min_samples_split'
S'min_samples_leaf'
S'min_weight_fraction_leaf'
S'max_features'
S'max_leaf_nodes'
S'min_impurity_decrease'
S'min_impurity_split'
S'random_state'
tp521
sg507
Nsg503
Nsg505
g506
sg28
g29
sg513
Nsg514
Nsbag39
(g40
(I0
tS'b'
tRp522
(I1
(I3
tg42
(S'f8'
I0
I1
tRp523
(I3
S'<'
NNNI-1
I-1
I0
tbI00
S'\xe9\xa2\x8b.\xba\xe8\xe2?\x17]t\xd1E\x17\xe5?G\xdc\x11w\xc4\x1d\xe1?'
tbaa(lp524
I912
ag4
(g5
g6
NtRp525
(dp526
S'warm_start'
p527
I00
sS'base_estimator'
p528
g4
(g11
g6
NtRp529
(dp530
S'presort'
p531
I00
sS'splitter'
p532
S'random'
p533
sS'min_impurity_decrease'
p534
F0
sS'min_impurity_split'
p535
NsS'min_samples_leaf'
p536
I1
sS'max_features'
p537
S'auto'
p538
sS'random_state'
p539
NsS'criterion'
p540
S'gini'
p541
sS'min_weight_fraction_leaf'
p542
F0
sS'max_leaf_nodes'
p543
NsS'min_samples_split'
p544
I2
sg28
g29
sS'max_depth'
p545
NsS'class_weight'
p546
NsbsS'n_jobs'
p547
Nsg534
F0
sS'verbose'
p548
I0
sg543
NsS'bootstrap'
p549
I00
sS'oob_score'
p550
I00
sg536
I1
sS'n_estimators'
p551
I100
sg544
I2
sg542
F0
sg540
g541
sS'estimator_params'
p552
(S'criterion'
S'max_depth'
S'min_samples_split'
S'min_samples_leaf'
S'min_weight_fraction_leaf'
S'max_features'
S'max_leaf_nodes'
S'min_impurity_decrease'
S'min_impurity_split'
S'random_state'
tp553
sg539
Nsg535
Nsg537
g538
sg28
g29
sg545
Nsg546
Nsbag39
(g40
(I0
tS'b'
tRp554
(I1
(I3
tg42
(S'f8'
I0
I1
tRp555
(I3
S'<'
NNNI-1
I-1
I0
tbI00
S'wwwwww\xe7?\xc4\x1dqG\xdc\x11\xe7?\xc4\x1dqG\xdc\x11\xe7?'
tbaa(lp556
I296
ag4
(g5
g6
NtRp557
(dp558
S'warm_start'
p559
I00
sS'base_estimator'
p560
g4
(g11
g6
NtRp561
(dp562
S'presort'
p563
I00
sS'splitter'
p564
S'random'
p565
sS'min_impurity_decrease'
p566
F0
sS'min_impurity_split'
p567
NsS'min_samples_leaf'
p568
I1
sS'max_features'
p569
S'auto'
p570
sS'random_state'
p571
NsS'criterion'
p572
S'gini'
p573
sS'min_weight_fraction_leaf'
p574
F0
sS'max_leaf_nodes'
p575
NsS'min_samples_split'
p576
I2
sg28
g29
sS'max_depth'
p577
NsS'class_weight'
p578
NsbsS'n_jobs'
p579
Nsg566
F0
sS'verbose'
p580
I0
sg575
NsS'bootstrap'
p581
I00
sS'oob_score'
p582
I00
sg568
I1
sS'n_estimators'
p583
I100
sg576
I2
sg574
F0
sg572
g573
sS'estimator_params'
p584
(S'criterion'
S'max_depth'
S'min_samples_split'
S'min_samples_leaf'
S'min_weight_fraction_leaf'
S'max_features'
S'max_leaf_nodes'
S'min_impurity_decrease'
S'min_impurity_split'
S'random_state'
tp585
sg571
Nsg567
Nsg569
g570
sg28
g29
sg577
Nsg578
Nsbag39
(g40
(I0
tS'b'
tRp586
(I1
(I3
tg42
(S'f8'
I0
I1
tRp587
(I3
S'<'
NNNI-1
I-1
I0
tbI00
S'\xba\xe8\xa2\x8b.\xba\xe8?\xba\xe8\xa2\x8b.\xba\xe8?S\xd6\x945eM\xe9?'
tbaa(lp588
I26
ag4
(g5
g6
NtRp589
(dp590
S'warm_start'
p591
I00
sS'base_estimator'
p592
g4
(g11
g6
NtRp593
(dp594
S'presort'
p595
I00
sS'splitter'
p596
S'random'
p597
sS'min_impurity_decrease'
p598
F0
sS'min_impurity_split'
p599
NsS'min_samples_leaf'
p600
I1
sS'max_features'
p601
S'auto'
p602
sS'random_state'
p603
NsS'criterion'
p604
S'gini'
p605
sS'min_weight_fraction_leaf'
p606
F0
sS'max_leaf_nodes'
p607
NsS'min_samples_split'
p608
I2
sg28
g29
sS'max_depth'
p609
NsS'class_weight'
p610
NsbsS'n_jobs'
p611
Nsg598
F0
sS'verbose'
p612
I0
sg607
NsS'bootstrap'
p613
I00
sS'oob_score'
p614
I00
sg600
I1
sS'n_estimators'
p615
I100
sg608
I2
sg606
F0
sg604
g605
sS'estimator_params'
p616
(S'criterion'
S'max_depth'
S'min_samples_split'
S'min_samples_leaf'
S'min_weight_fraction_leaf'
S'max_features'
S'max_leaf_nodes'
S'min_impurity_decrease'
S'min_impurity_split'
S'random_state'
tp617
sg603
Nsg599
Nsg601
g602
sg28
g29
sg609
Nsg610
Nsbag39
(g40
(I0
tS'b'
tRp618
(I1
(I3
tg42
(S'f8'
I0
I1
tRp619
(I3
S'<'
NNNI-1
I-1
I0
tbI00
S'\xa3\x8b.\xba\xe8\xa2\xeb?\xa3\x8b.\xba\xe8\xa2\xeb?\xe2\x8e\xb8#\xee\x88\xeb?'
tbaa(lp620
I214
ag4
(g5
g6
NtRp621
(dp622
S'warm_start'
p623
I00
sS'base_estimator'
p624
g4
(g11
g6
NtRp625
(dp626
S'presort'
p627
I00
sS'splitter'
p628
S'random'
p629
sS'min_impurity_decrease'
p630
F0
sS'min_impurity_split'
p631
NsS'min_samples_leaf'
p632
I1
sS'max_features'
p633
S'auto'
p634
sS'random_state'
p635
NsS'criterion'
p636
S'gini'
p637
sS'min_weight_fraction_leaf'
p638
F0
sS'max_leaf_nodes'
p639
NsS'min_samples_split'
p640
I2
sg28
g29
sS'max_depth'
p641
NsS'class_weight'
p642
NsbsS'n_jobs'
p643
Nsg630
F0
sS'verbose'
p644
I0
sg639
NsS'bootstrap'
p645
I00
sS'oob_score'
p646
I00
sg632
I1
sS'n_estimators'
p647
I100
sg640
I2
sg638
F0
sg636
g637
sS'estimator_params'
p648
(S'criterion'
S'max_depth'
S'min_samples_split'
S'min_samples_leaf'
S'min_weight_fraction_leaf'
S'max_features'
S'max_leaf_nodes'
S'min_impurity_decrease'
S'min_impurity_split'
S'random_state'
tp649
sg635
Nsg631
Nsg633
g634
sg28
g29
sg641
Nsg642
Nsbag39
(g40
(I0
tS'b'
tRp650
(I1
(I3
tg42
(S'f8'
I0
I1
tRp651
(I3
S'<'
NNNI-1
I-1
I0
tbI00
S'\xa3\x8b.\xba\xe8\xa2\xeb?\xa3\x8b.\xba\xe8\xa2\xeb?\xe2\x8e\xb8#\xee\x88\xeb?'
tbaa(lp652
I254
ag4
(g5
g6
NtRp653
(dp654
S'warm_start'
p655
I00
sS'base_estimator'
p656
g4
(g11
g6
NtRp657
(dp658
S'presort'
p659
I00
sS'splitter'
p660
S'random'
p661
sS'min_impurity_decrease'
p662
F0
sS'min_impurity_split'
p663
NsS'min_samples_leaf'
p664
I1
sS'max_features'
p665
S'auto'
p666
sS'random_state'
p667
NsS'criterion'
p668
S'gini'
p669
sS'min_weight_fraction_leaf'
p670
F0
sS'max_leaf_nodes'
p671
NsS'min_samples_split'
p672
I2
sg28
g29
sS'max_depth'
p673
NsS'class_weight'
p674
NsbsS'n_jobs'
p675
Nsg662
F0
sS'verbose'
p676
I0
sg671
NsS'bootstrap'
p677
I00
sS'oob_score'
p678
I00
sg664
I1
sS'n_estimators'
p679
I100
sg672
I2
sg670
F0
sg668
g669
sS'estimator_params'
p680
(S'criterion'
S'max_depth'
S'min_samples_split'
S'min_samples_leaf'
S'min_weight_fraction_leaf'
S'max_features'
S'max_leaf_nodes'
S'min_impurity_decrease'
S'min_impurity_split'
S'random_state'
tp681
sg667
Nsg663
Nsg665
g666
sg28
g29
sg673
Nsg674
Nsbag39
(g40
(I0
tS'b'
tRp682
(I1
(I3
tg42
(S'f8'
I0
I1
tRp683
(I3
S'<'
NNNI-1
I-1
I0
tbI00
S'\xe9\xa2\x8b.\xba\xe8\xea?\xe9\xa2\x8b.\xba\xe8\xea?\xb3\xa6\xac)k\xca\xea?'
tbaa(lp684
I113
ag4
(g5
g6
NtRp685
(dp686
S'warm_start'
p687
I00
sS'base_estimator'
p688
g4
(g11
g6
NtRp689
(dp690
S'presort'
p691
I00
sS'splitter'
p692
S'random'
p693
sS'min_impurity_decrease'
p694
F0
sS'min_impurity_split'
p695
NsS'min_samples_leaf'
p696
I1
sS'max_features'
p697
S'auto'
p698
sS'random_state'
p699
NsS'criterion'
p700
S'gini'
p701
sS'min_weight_fraction_leaf'
p702
F0
sS'max_leaf_nodes'
p703
NsS'min_samples_split'
p704
I2
sg28
g29
sS'max_depth'
p705
NsS'class_weight'
p706
NsbsS'n_jobs'
p707
Nsg694
F0
sS'verbose'
p708
I0
sg703
NsS'bootstrap'
p709
I00
sS'oob_score'
p710
I00
sg696
I1
sS'n_estimators'
p711
I100
sg704
I2
sg702
F0
sg700
g701
sS'estimator_params'
p712
(S'criterion'
S'max_depth'
S'min_samples_split'
S'min_samples_leaf'
S'min_weight_fraction_leaf'
S'max_features'
S'max_leaf_nodes'
S'min_impurity_decrease'
S'min_impurity_split'
S'random_state'
tp713
sg699
Nsg695
Nsg697
g698
sg28
g29
sg705
Nsg706
Nsbag39
(g40
(I0
tS'b'
tRp714
(I1
(I3
tg42
(S'f8'
I0
I1
tRp715
(I3
S'<'
NNNI-1
I-1
I0
tbI00
S'\x9a\x99\x99\x99\x99\x99\xe9?\x83\xbe\xa0/\xe8\x0b\xea?\x83\xbe\xa0/\xe8\x0b\xea?'
tbaa(lp716
I753
ag4
(g5
g6
NtRp717
(dp718
S'warm_start'
p719
I00
sS'base_estimator'
p720
g4
(g11
g6
NtRp721
(dp722
S'presort'
p723
I00
sS'splitter'
p724
S'random'
p725
sS'min_impurity_decrease'
p726
F0
sS'min_impurity_split'
p727
NsS'min_samples_leaf'
p728
I1
sS'max_features'
p729
S'auto'
p730
sS'random_state'
p731
NsS'criterion'
p732
S'gini'
p733
sS'min_weight_fraction_leaf'
p734
F0
sS'max_leaf_nodes'
p735
NsS'min_samples_split'
p736
I2
sg28
g29
sS'max_depth'
p737
NsS'class_weight'
p738
NsbsS'n_jobs'
p739
Nsg726
F0
sS'verbose'
p740
I0
sg735
NsS'bootstrap'
p741
I00
sS'oob_score'
p742
I00
sg728
I1
sS'n_estimators'
p743
I100
sg736
I2
sg734
F0
sg732
g733
sS'estimator_params'
p744
(S'criterion'
S'max_depth'
S'min_samples_split'
S'min_samples_leaf'
S'min_weight_fraction_leaf'
S'max_features'
S'max_leaf_nodes'
S'min_impurity_decrease'
S'min_impurity_split'
S'random_state'
tp745
sg731
Nsg727
Nsg729
g730
sg28
g29
sg737
Nsg738
Nsbag39
(g40
(I0
tS'b'
tRp746
(I1
(I3
tg42
(S'f8'
I0
I1
tRp747
(I3
S'<'
NNNI-1
I-1
I0
tbI00
S']t\xd1E\x17]\xe4?\x17]t\xd1E\x17\xe5?\x955eMYS\xe6?'
tbaa(lp748
I422
ag4
(g5
g6
NtRp749
(dp750
S'warm_start'
p751
I00
sS'base_estimator'
p752
g4
(g11
g6
NtRp753
(dp754
S'presort'
p755
I00
sS'splitter'
p756
S'random'
p757
sS'min_impurity_decrease'
p758
F0
sS'min_impurity_split'
p759
NsS'min_samples_leaf'
p760
I1
sS'max_features'
p761
S'auto'
p762
sS'random_state'
p763
NsS'criterion'
p764
S'gini'
p765
sS'min_weight_fraction_leaf'
p766
F0
sS'max_leaf_nodes'
p767
NsS'min_samples_split'
p768
I2
sg28
g29
sS'max_depth'
p769
NsS'class_weight'
p770
NsbsS'n_jobs'
p771
Nsg758
F0
sS'verbose'
p772
I0
sg767
NsS'bootstrap'
p773
I00
sS'oob_score'
p774
I00
sg760
I1
sS'n_estimators'
p775
I100
sg768
I2
sg766
F0
sg764
g765
sS'estimator_params'
p776
(S'criterion'
S'max_depth'
S'min_samples_split'
S'min_samples_leaf'
S'min_weight_fraction_leaf'
S'max_features'
S'max_leaf_nodes'
S'min_impurity_decrease'
S'min_impurity_split'
S'random_state'
tp777
sg763
Nsg759
Nsg761
g762
sg28
g29
sg769
Nsg770
Nsbag39
(g40
(I0
tS'b'
tRp778
(I1
(I3
tg42
(S'f8'
I0
I1
tRp779
(I3
S'<'
NNNI-1
I-1
I0
tbI00
S'UUUUUU\xe5?\x955eMYS\xe6?\x955eMYS\xe6?'
tbaa(lp780
I944
ag4
(g5
g6
NtRp781
(dp782
S'warm_start'
p783
I00
sS'base_estimator'
p784
g4
(g11
g6
NtRp785
(dp786
S'presort'
p787
I00
sS'splitter'
p788
S'random'
p789
sS'min_impurity_decrease'
p790
F0
sS'min_impurity_split'
p791
NsS'min_samples_leaf'
p792
I1
sS'max_features'
p793
S'auto'
p794
sS'random_state'
p795
NsS'criterion'
p796
S'gini'
p797
sS'min_weight_fraction_leaf'
p798
F0
sS'max_leaf_nodes'
p799
NsS'min_samples_split'
p800
I2
sg28
g29
sS'max_depth'
p801
NsS'class_weight'
p802
NsbsS'n_jobs'
p803
Nsg790
F0
sS'verbose'
p804
I0
sg799
NsS'bootstrap'
p805
I00
sS'oob_score'
p806
I00
sg792
I1
sS'n_estimators'
p807
I100
sg800
I2
sg798
F0
sg796
g797
sS'estimator_params'
p808
(S'criterion'
S'max_depth'
S'min_samples_split'
S'min_samples_leaf'
S'min_weight_fraction_leaf'
S'max_features'
S'max_leaf_nodes'
S'min_impurity_decrease'
S'min_impurity_split'
S'random_state'
tp809
sg795
Nsg791
Nsg793
g794
sg28
g29
sg801
Nsg802
Nsbag39
(g40
(I0
tS'b'
tRp810
(I1
(I3
tg42
(S'f8'
I0
I1
tRp811
(I3
S'<'
NNNI-1
I-1
I0
tbI00
S'\xf5I\x9f\xf4I\x9f\xe4?\x06}A_\xd0\x17\xe4?6eMYS\xd6\xe4?'
tbaa(lp812
I671
ag4
(g5
g6
NtRp813
(dp814
S'warm_start'
p815
I00
sS'base_estimator'
p816
g4
(g11
g6
NtRp817
(dp818
S'presort'
p819
I00
sS'splitter'
p820
S'random'
p821
sS'min_impurity_decrease'
p822
F0
sS'min_impurity_split'
p823
NsS'min_samples_leaf'
p824
I1
sS'max_features'
p825
S'auto'
p826
sS'random_state'
p827
NsS'criterion'
p828
S'gini'
p829
sS'min_weight_fraction_leaf'
p830
F0
sS'max_leaf_nodes'
p831
NsS'min_samples_split'
p832
I2
sg28
g29
sS'max_depth'
p833
NsS'class_weight'
p834
NsbsS'n_jobs'
p835
Nsg822
F0
sS'verbose'
p836
I0
sg831
NsS'bootstrap'
p837
I00
sS'oob_score'
p838
I00
sg824
I1
sS'n_estimators'
p839
I100
sg832
I2
sg830
F0
sg828
g829
sS'estimator_params'
p840
(S'criterion'
S'max_depth'
S'min_samples_split'
S'min_samples_leaf'
S'min_weight_fraction_leaf'
S'max_features'
S'max_leaf_nodes'
S'min_impurity_decrease'
S'min_impurity_split'
S'random_state'
tp841
sg827
Nsg823
Nsg825
g826
sg28
g29
sg833
Nsg834
Nsbag39
(g40
(I0
tS'b'
tRp842
(I1
(I3
tg42
(S'f8'
I0
I1
tRp843
(I3
S'<'
NNNI-1
I-1
I0
tbI00
S'\xa3\x8b.\xba\xe8\xa2\xeb?\xa3\x8b.\xba\xe8\xa2\xeb?\xe2\x8e\xb8#\xee\x88\xeb?'
tbaa(lp844
I235
ag4
(g5
g6
NtRp845
(dp846
S'warm_start'
p847
I00
sS'base_estimator'
p848
g4
(g11
g6
NtRp849
(dp850
S'presort'
p851
I00
sS'splitter'
p852
S'random'
p853
sS'min_impurity_decrease'
p854
F0
sS'min_impurity_split'
p855
NsS'min_samples_leaf'
p856
I1
sS'max_features'
p857
S'auto'
p858
sS'random_state'
p859
NsS'criterion'
p860
S'gini'
p861
sS'min_weight_fraction_leaf'
p862
F0
sS'max_leaf_nodes'
p863
NsS'min_samples_split'
p864
I2
sg28
g29
sS'max_depth'
p865
NsS'class_weight'
p866
NsbsS'n_jobs'
p867
Nsg854
F0
sS'verbose'
p868
I0
sg863
NsS'bootstrap'
p869
I00
sS'oob_score'
p870
I00
sg856
I1
sS'n_estimators'
p871
I100
sg864
I2
sg862
F0
sg860
g861
sS'estimator_params'
p872
(S'criterion'
S'max_depth'
S'min_samples_split'
S'min_samples_leaf'
S'min_weight_fraction_leaf'
S'max_features'
S'max_leaf_nodes'
S'min_impurity_decrease'
S'min_impurity_split'
S'random_state'
tp873
sg859
Nsg855
Nsg857
g858
sg28
g29
sg865
Nsg866
Nsbag39
(g40
(I0
tS'b'
tRp874
(I1
(I3
tg42
(S'f8'
I0
I1
tRp875
(I3
S'<'
NNNI-1
I-1
I0
tbI00
S'9\x8e\xe38\x8e\xe3\xe8?S\xd6\x945eM\xe9?S\xd6\x945eM\xe9?'
tbaa(lp876
I544
ag4
(g5
g6
NtRp877
(dp878
S'warm_start'
p879
I00
sS'base_estimator'
p880
g4
(g11
g6
NtRp881
(dp882
S'presort'
p883
I00
sS'splitter'
p884
S'random'
p885
sS'min_impurity_decrease'
p886
F0
sS'min_impurity_split'
p887
NsS'min_samples_leaf'
p888
I1
sS'max_features'
p889
S'auto'
p890
sS'random_state'
p891
NsS'criterion'
p892
S'gini'
p893
sS'min_weight_fraction_leaf'
p894
F0
sS'max_leaf_nodes'
p895
NsS'min_samples_split'
p896
I2
sg28
g29
sS'max_depth'
p897
NsS'class_weight'
p898
NsbsS'n_jobs'
p899
Nsg886
F0
sS'verbose'
p900
I0
sg895
NsS'bootstrap'
p901
I00
sS'oob_score'
p902
I00
sg888
I1
sS'n_estimators'
p903
I100
sg896
I2
sg894
F0
sg892
g893
sS'estimator_params'
p904
(S'criterion'
S'max_depth'
S'min_samples_split'
S'min_samples_leaf'
S'min_weight_fraction_leaf'
S'max_features'
S'max_leaf_nodes'
S'min_impurity_decrease'
S'min_impurity_split'
S'random_state'
tp905
sg891
Nsg887
Nsg889
g890
sg28
g29
sg897
Nsg898
Nsbag39
(g40
(I0
tS'b'
tRp906
(I1
(I3
tg42
(S'f8'
I0
I1
tRp907
(I3
S'<'
NNNI-1
I-1
I0
tbI00
S'\xa3\x8b.\xba\xe8\xa2\xeb?\xa3\x8b.\xba\xe8\xa2\xeb?\x12w\xc4\x1dqG\xec?'
tbaa(lp908
I405
ag4
(g5
g6
NtRp909
(dp910
S'warm_start'
p911
I00
sS'base_estimator'
p912
g4
(g11
g6
NtRp913
(dp914
S'presort'
p915
I00
sS'splitter'
p916
S'random'
p917
sS'min_impurity_decrease'
p918
F0
sS'min_impurity_split'
p919
NsS'min_samples_leaf'
p920
I1
sS'max_features'
p921
S'auto'
p922
sS'random_state'
p923
NsS'criterion'
p924
S'gini'
p925
sS'min_weight_fraction_leaf'
p926
F0
sS'max_leaf_nodes'
p927
NsS'min_samples_split'
p928
I2
sg28
g29
sS'max_depth'
p929
NsS'class_weight'
p930
NsbsS'n_jobs'
p931
Nsg918
F0
sS'verbose'
p932
I0
sg927
NsS'bootstrap'
p933
I00
sS'oob_score'
p934
I00
sg920
I1
sS'n_estimators'
p935
I100
sg928
I2
sg926
F0
sg924
g925
sS'estimator_params'
p936
(S'criterion'
S'max_depth'
S'min_samples_split'
S'min_samples_leaf'
S'min_weight_fraction_leaf'
S'max_features'
S'max_leaf_nodes'
S'min_impurity_decrease'
S'min_impurity_split'
S'random_state'
tp937
sg923
Nsg919
Nsg921
g922
sg28
g29
sg929
Nsg930
Nsbag39
(g40
(I0
tS'b'
tRp938
(I1
(I3
tg42
(S'f8'
I0
I1
tRp939
(I3
S'<'
NNNI-1
I-1
I0
tbI00
S'\xba\xe8\xa2\x8b.\xba\xe8?\xba\xe8\xa2\x8b.\xba\xe8?$\xee\x88;\xe2\x8e\xe8?'
tbaa(lp940
I724
ag4
(g5
g6
NtRp941
(dp942
S'warm_start'
p943
I00
sS'base_estimator'
p944
g4
(g11
g6
NtRp945
(dp946
S'presort'
p947
I00
sS'splitter'
p948
S'random'
p949
sS'min_impurity_decrease'
p950
F0
sS'min_impurity_split'
p951
NsS'min_samples_leaf'
p952
I1
sS'max_features'
p953
S'auto'
p954
sS'random_state'
p955
NsS'criterion'
p956
S'gini'
p957
sS'min_weight_fraction_leaf'
p958
F0
sS'max_leaf_nodes'
p959
NsS'min_samples_split'
p960
I2
sg28
g29
sS'max_depth'
p961
NsS'class_weight'
p962
NsbsS'n_jobs'
p963
Nsg950
F0
sS'verbose'
p964
I0
sg959
NsS'bootstrap'
p965
I00
sS'oob_score'
p966
I00
sg952
I1
sS'n_estimators'
p967
I100
sg960
I2
sg958
F0
sg956
g957
sS'estimator_params'
p968
(S'criterion'
S'max_depth'
S'min_samples_split'
S'min_samples_leaf'
S'min_weight_fraction_leaf'
S'max_features'
S'max_leaf_nodes'
S'min_impurity_decrease'
S'min_impurity_split'
S'random_state'
tp969
sg955
Nsg951
Nsg953
g954
sg28
g29
sg961
Nsg962
Nsbag39
(g40
(I0
tS'b'
tRp970
(I1
(I3
tg42
(S'f8'
I0
I1
tRp971
(I3
S'<'
NNNI-1
I-1
I0
tbI00
S't\xd1E\x17]t\xe9?\xe9\xa2\x8b.\xba\xe8\xea?\xb3\xa6\xac)k\xca\xea?'
tbaa(lp972
I334
ag4
(g5
g6
NtRp973
(dp974
S'warm_start'
p975
I00
sS'base_estimator'
p976
g4
(g11
g6
NtRp977
(dp978
S'presort'
p979
I00
sS'splitter'
p980
S'random'
p981
sS'min_impurity_decrease'
p982
F0
sS'min_impurity_split'
p983
NsS'min_samples_leaf'
p984
I1
sS'max_features'
p985
S'auto'
p986
sS'random_state'
p987
NsS'criterion'
p988
S'gini'
p989
sS'min_weight_fraction_leaf'
p990
F0
sS'max_leaf_nodes'
p991
NsS'min_samples_split'
p992
I2
sg28
g29
sS'max_depth'
p993
NsS'class_weight'
p994
NsbsS'n_jobs'
p995
Nsg982
F0
sS'verbose'
p996
I0
sg991
NsS'bootstrap'
p997
I00
sS'oob_score'
p998
I00
sg984
I1
sS'n_estimators'
p999
I100
sg992
I2
sg990
F0
sg988
g989
sS'estimator_params'
p1000
(S'criterion'
S'max_depth'
S'min_samples_split'
S'min_samples_leaf'
S'min_weight_fraction_leaf'
S'max_features'
S'max_leaf_nodes'
S'min_impurity_decrease'
S'min_impurity_split'
S'random_state'
tp1001
sg987
Nsg983
Nsg985
g986
sg28
g29
sg993
Nsg994
Nsbag39
(g40
(I0
tS'b'
tRp1002
(I1
(I3
tg42
(S'f8'
I0
I1
tRp1003
(I3
S'<'
NNNI-1
I-1
I0
tbI00
S'\xfa\xa4O\xfa\xa4O\xea?\xb3\xa6\xac)k\xca\xea?\xb3\xa6\xac)k\xca\xea?'
tbaa(lp1004
I25
ag4
(g5
g6
NtRp1005
(dp1006
S'warm_start'
p1007
I00
sS'base_estimator'
p1008
g4
(g11
g6
NtRp1009
(dp1010
S'presort'
p1011
I00
sS'splitter'
p1012
S'random'
p1013
sS'min_impurity_decrease'
p1014
F0
sS'min_impurity_split'
p1015
NsS'min_samples_leaf'
p1016
I1
sS'max_features'
p1017
S'auto'
p1018
sS'random_state'
p1019
NsS'criterion'
p1020
S'gini'
p1021
sS'min_weight_fraction_leaf'
p1022
F0
sS'max_leaf_nodes'
p1023
NsS'min_samples_split'
p1024
I2
sg28
g29
sS'max_depth'
p1025
NsS'class_weight'
p1026
NsbsS'n_jobs'
p1027
Nsg1014
F0
sS'verbose'
p1028
I0
sg1023
NsS'bootstrap'
p1029
I00
sS'oob_score'
p1030
I00
sg1016
I1
sS'n_estimators'
p1031
I100
sg1024
I2
sg1022
F0
sg1020
g1021
sS'estimator_params'
p1032
(S'criterion'
S'max_depth'
S'min_samples_split'
S'min_samples_leaf'
S'min_weight_fraction_leaf'
S'max_features'
S'max_leaf_nodes'
S'min_impurity_decrease'
S'min_impurity_split'
S'random_state'
tp1033
sg1019
Nsg1015
Nsg1017
g1018
sg28
g29
sg1025
Nsg1026
Nsbag39
(g40
(I0
tS'b'
tRp1034
(I1
(I3
tg42
(S'f8'
I0
I1
tRp1035
(I3
S'<'
NNNI-1
I-1
I0
tbI00
S'\x00\x00\x00\x00\x00\x00\xe8?\x00\x00\x00\x00\x00\x00\xe8?$\xee\x88;\xe2\x8e\xe8?'
tbaa(lp1036
I196
ag4
(g5
g6
NtRp1037
(dp1038
S'warm_start'
p1039
I00
sS'base_estimator'
p1040
g4
(g11
g6
NtRp1041
(dp1042
S'presort'
p1043
I00
sS'splitter'
p1044
S'random'
p1045
sS'min_impurity_decrease'
p1046
F0
sS'min_impurity_split'
p1047
NsS'min_samples_leaf'
p1048
I1
sS'max_features'
p1049
S'auto'
p1050
sS'random_state'
p1051
NsS'criterion'
p1052
S'gini'
p1053
sS'min_weight_fraction_leaf'
p1054
F0
sS'max_leaf_nodes'
p1055
NsS'min_samples_split'
p1056
I2
sg28
g29
sS'max_depth'
p1057
NsS'class_weight'
p1058
NsbsS'n_jobs'
p1059
Nsg1046
F0
sS'verbose'
p1060
I0
sg1055
NsS'bootstrap'
p1061
I00
sS'oob_score'
p1062
I00
sg1048
I1
sS'n_estimators'
p1063
I100
sg1056
I2
sg1054
F0
sg1052
g1053
sS'estimator_params'
p1064
(S'criterion'
S'max_depth'
S'min_samples_split'
S'min_samples_leaf'
S'min_weight_fraction_leaf'
S'max_features'
S'max_leaf_nodes'
S'min_impurity_decrease'
S'min_impurity_split'
S'random_state'
tp1065
sg1051
Nsg1047
Nsg1049
g1050
sg28
g29
sg1057
Nsg1058
Nsbag39
(g40
(I0
tS'b'
tRp1066
(I1
(I3
tg42
(S'f8'
I0
I1
tRp1067
(I3
S'<'
NNNI-1
I-1
I0
tbI00
S'\x17l\xc1\x16l\xc1\xe6?\xc4\x1dqG\xdc\x11\xe7?6eMYS\xd6\xe4?'
tbaa(lp1068
I88
ag4
(g5
g6
NtRp1069
(dp1070
S'warm_start'
p1071
I00
sS'base_estimator'
p1072
g4
(g11
g6
NtRp1073
(dp1074
S'presort'
p1075
I00
sS'splitter'
p1076
S'random'
p1077
sS'min_impurity_decrease'
p1078
F0
sS'min_impurity_split'
p1079
NsS'min_samples_leaf'
p1080
I1
sS'max_features'
p1081
S'auto'
p1082
sS'random_state'
p1083
NsS'criterion'
p1084
S'gini'
p1085
sS'min_weight_fraction_leaf'
p1086
F0
sS'max_leaf_nodes'
p1087
NsS'min_samples_split'
p1088
I2
sg28
g29
sS'max_depth'
p1089
NsS'class_weight'
p1090
NsbsS'n_jobs'
p1091
Nsg1078
F0
sS'verbose'
p1092
I0
sg1087
NsS'bootstrap'
p1093
I00
sS'oob_score'
p1094
I00
sg1080
I1
sS'n_estimators'
p1095
I100
sg1088
I2
sg1086
F0
sg1084
g1085
sS'estimator_params'
p1096
(S'criterion'
S'max_depth'
S'min_samples_split'
S'min_samples_leaf'
S'min_weight_fraction_leaf'
S'max_features'
S'max_leaf_nodes'
S'min_impurity_decrease'
S'min_impurity_split'
S'random_state'
tp1097
sg1083
Nsg1079
Nsg1081
g1082
sg28
g29
sg1089
Nsg1090
Nsbag39
(g40
(I0
tS'b'
tRp1098
(I1
(I3
tg42
(S'f8'
I0
I1
tRp1099
(I3
S'<'
NNNI-1
I-1
I0
tbI00
S'\x8c.\xba\xe8\xa2\x8b\xe6?\x8c.\xba\xe8\xa2\x8b\xe6?\xc4\x1dqG\xdc\x11\xe7?'
tbaa(lp1100
I421
ag4
(g5
g6
NtRp1101
(dp1102
S'warm_start'
p1103
I00
sS'base_estimator'
p1104
g4
(g11
g6
NtRp1105
(dp1106
S'presort'
p1107
I00
sS'splitter'
p1108
S'random'
p1109
sS'min_impurity_decrease'
p1110
F0
sS'min_impurity_split'
p1111
NsS'min_samples_leaf'
p1112
I1
sS'max_features'
p1113
S'auto'
p1114
sS'random_state'
p1115
NsS'criterion'
p1116
S'gini'
p1117
sS'min_weight_fraction_leaf'
p1118
F0
sS'max_leaf_nodes'
p1119
NsS'min_samples_split'
p1120
I2
sg28
g29
sS'max_depth'
p1121
NsS'class_weight'
p1122
NsbsS'n_jobs'
p1123
Nsg1110
F0
sS'verbose'
p1124
I0
sg1119
NsS'bootstrap'
p1125
I00
sS'oob_score'
p1126
I00
sg1112
I1
sS'n_estimators'
p1127
I100
sg1120
I2
sg1118
F0
sg1116
g1117
sS'estimator_params'
p1128
(S'criterion'
S'max_depth'
S'min_samples_split'
S'min_samples_leaf'
S'min_weight_fraction_leaf'
S'max_features'
S'max_leaf_nodes'
S'min_impurity_decrease'
S'min_impurity_split'
S'random_state'
tp1129
sg1115
Nsg1111
Nsg1113
g1114
sg28
g29
sg1121
Nsg1122
Nsbag39
(g40
(I0
tS'b'
tRp1130
(I1
(I3
tg42
(S'f8'
I0
I1
tRp1131
(I3
S'<'
NNNI-1
I-1
I0
tbI00
S'\x17]t\xd1E\x17\xed?\x17]t\xd1E\x17\xed?A_\xd0\x17\xf4\x05\xed?'
tbaa(lp1132
I726
ag4
(g5
g6
NtRp1133
(dp1134
S'warm_start'
p1135
I00
sS'base_estimator'
p1136
g4
(g11
g6
NtRp1137
(dp1138
S'presort'
p1139
I00
sS'splitter'
p1140
S'random'
p1141
sS'min_impurity_decrease'
p1142
F0
sS'min_impurity_split'
p1143
NsS'min_samples_leaf'
p1144
I1
sS'max_features'
p1145
S'auto'
p1146
sS'random_state'
p1147
NsS'criterion'
p1148
S'gini'
p1149
sS'min_weight_fraction_leaf'
p1150
F0
sS'max_leaf_nodes'
p1151
NsS'min_samples_split'
p1152
I2
sg28
g29
sS'max_depth'
p1153
NsS'class_weight'
p1154
NsbsS'n_jobs'
p1155
Nsg1142
F0
sS'verbose'
p1156
I0
sg1151
NsS'bootstrap'
p1157
I00
sS'oob_score'
p1158
I00
sg1144
I1
sS'n_estimators'
p1159
I100
sg1152
I2
sg1150
F0
sg1148
g1149
sS'estimator_params'
p1160
(S'criterion'
S'max_depth'
S'min_samples_split'
S'min_samples_leaf'
S'min_weight_fraction_leaf'
S'max_features'
S'max_leaf_nodes'
S'min_impurity_decrease'
S'min_impurity_split'
S'random_state'
tp1161
sg1147
Nsg1143
Nsg1145
g1146
sg28
g29
sg1153
Nsg1154
Nsbag39
(g40
(I0
tS'b'
tRp1162
(I1
(I3
tg42
(S'f8'
I0
I1
tRp1163
(I3
S'<'
NNNI-1
I-1
I0
tbI00
S']t\xd1E\x17]\xe4?\xd1E\x17]t\xd1\xe5?\x955eMYS\xe6?'
tbaa(lp1164
I343
ag4
(g5
g6
NtRp1165
(dp1166
S'warm_start'
p1167
I00
sS'base_estimator'
p1168
g4
(g11
g6
NtRp1169
(dp1170
S'presort'
p1171
I00
sS'splitter'
p1172
S'random'
p1173
sS'min_impurity_decrease'
p1174
F0
sS'min_impurity_split'
p1175
NsS'min_samples_leaf'
p1176
I1
sS'max_features'
p1177
S'auto'
p1178
sS'random_state'
p1179
NsS'criterion'
p1180
S'gini'
p1181
sS'min_weight_fraction_leaf'
p1182
F0
sS'max_leaf_nodes'
p1183
NsS'min_samples_split'
p1184
I2
sg28
g29
sS'max_depth'
p1185
NsS'class_weight'
p1186
NsbsS'n_jobs'
p1187
Nsg1174
F0
sS'verbose'
p1188
I0
sg1183
NsS'bootstrap'
p1189
I00
sS'oob_score'
p1190
I00
sg1176
I1
sS'n_estimators'
p1191
I100
sg1184
I2
sg1182
F0
sg1180
g1181
sS'estimator_params'
p1192
(S'criterion'
S'max_depth'
S'min_samples_split'
S'min_samples_leaf'
S'min_weight_fraction_leaf'
S'max_features'
S'max_leaf_nodes'
S'min_impurity_decrease'
S'min_impurity_split'
S'random_state'
tp1193
sg1179
Nsg1175
Nsg1177
g1178
sg28
g29
sg1185
Nsg1186
Nsbag39
(g40
(I0
tS'b'
tRp1194
(I1
(I3
tg42
(S'f8'
I0
I1
tRp1195
(I3
S'<'
NNNI-1
I-1
I0
tbI00
S'\xbc\xbb\xbb\xbb\xbb\xbb\xeb?\x12w\xc4\x1dqG\xec?\x12w\xc4\x1dqG\xec?'
tbaa(lp1196
I174
ag4
(g5
g6
NtRp1197
(dp1198
S'warm_start'
p1199
I00
sS'base_estimator'
p1200
g4
(g11
g6
NtRp1201
(dp1202
S'presort'
p1203
I00
sS'splitter'
p1204
S'random'
p1205
sS'min_impurity_decrease'
p1206
F0
sS'min_impurity_split'
p1207
NsS'min_samples_leaf'
p1208
I1
sS'max_features'
p1209
S'auto'
p1210
sS'random_state'
p1211
NsS'criterion'
p1212
S'gini'
p1213
sS'min_weight_fraction_leaf'
p1214
F0
sS'max_leaf_nodes'
p1215
NsS'min_samples_split'
p1216
I2
sg28
g29
sS'max_depth'
p1217
NsS'class_weight'
p1218
NsbsS'n_jobs'
p1219
Nsg1206
F0
sS'verbose'
p1220
I0
sg1215
NsS'bootstrap'
p1221
I00
sS'oob_score'
p1222
I00
sg1208
I1
sS'n_estimators'
p1223
I100
sg1216
I2
sg1214
F0
sg1212
g1213
sS'estimator_params'
p1224
(S'criterion'
S'max_depth'
S'min_samples_split'
S'min_samples_leaf'
S'min_weight_fraction_leaf'
S'max_features'
S'max_leaf_nodes'
S'min_impurity_decrease'
S'min_impurity_split'
S'random_state'
tp1225
sg1211
Nsg1207
Nsg1209
g1210
sg28
g29
sg1217
Nsg1218
Nsbag39
(g40
(I0
tS'b'
tRp1226
(I1
(I3
tg42
(S'f8'
I0
I1
tRp1227
(I3
S'<'
NNNI-1
I-1
I0
tbI00
S'\xfa\xa4O\xfa\xa4O\xea?\xb3\xa6\xac)k\xca\xea?\xb3\xa6\xac)k\xca\xea?'
tbaa(lp1228
I1073
ag4
(g5
g6
NtRp1229
(dp1230
S'warm_start'
p1231
I00
sS'base_estimator'
p1232
g4
(g11
g6
NtRp1233
(dp1234
S'presort'
p1235
I00
sS'splitter'
p1236
S'random'
p1237
sS'min_impurity_decrease'
p1238
F0
sS'min_impurity_split'
p1239
NsS'min_samples_leaf'
p1240
I1
sS'max_features'
p1241
S'auto'
p1242
sS'random_state'
p1243
NsS'criterion'
p1244
S'gini'
p1245
sS'min_weight_fraction_leaf'
p1246
F0
sS'max_leaf_nodes'
p1247
NsS'min_samples_split'
p1248
I2
sg28
g29
sS'max_depth'
p1249
NsS'class_weight'
p1250
NsbsS'n_jobs'
p1251
Nsg1238
F0
sS'verbose'
p1252
I0
sg1247
NsS'bootstrap'
p1253
I00
sS'oob_score'
p1254
I00
sg1240
I1
sS'n_estimators'
p1255
I100
sg1248
I2
sg1246
F0
sg1244
g1245
sS'estimator_params'
p1256
(S'criterion'
S'max_depth'
S'min_samples_split'
S'min_samples_leaf'
S'min_weight_fraction_leaf'
S'max_features'
S'max_leaf_nodes'
S'min_impurity_decrease'
S'min_impurity_split'
S'random_state'
tp1257
sg1243
Nsg1239
Nsg1241
g1242
sg28
g29
sg1249
Nsg1250
Nsbag39
(g40
(I0
tS'b'
tRp1258
(I1
(I3
tg42
(S'f8'
I0
I1
tRp1259
(I3
S'<'
NNNI-1
I-1
I0
tbI00
S'\x17]t\xd1E\x17\xe5?\xd1E\x17]t\xd1\xe5?eMYS\xd6\x94\xe5?'
tbaa(lp1260
I396
ag4
(g5
g6
NtRp1261
(dp1262
S'warm_start'
p1263
I00
sS'base_estimator'
p1264
g4
(g11
g6
NtRp1265
(dp1266
S'presort'
p1267
I00
sS'splitter'
p1268
S'random'
p1269
sS'min_impurity_decrease'
p1270
F0
sS'min_impurity_split'
p1271
NsS'min_samples_leaf'
p1272
I1
sS'max_features'
p1273
S'auto'
p1274
sS'random_state'
p1275
NsS'criterion'
p1276
S'gini'
p1277
sS'min_weight_fraction_leaf'
p1278
F0
sS'max_leaf_nodes'
p1279
NsS'min_samples_split'
p1280
I2
sg28
g29
sS'max_depth'
p1281
NsS'class_weight'
p1282
NsbsS'n_jobs'
p1283
Nsg1270
F0
sS'verbose'
p1284
I0
sg1279
NsS'bootstrap'
p1285
I00
sS'oob_score'
p1286
I00
sg1272
I1
sS'n_estimators'
p1287
I100
sg1280
I2
sg1278
F0
sg1276
g1277
sS'estimator_params'
p1288
(S'criterion'
S'max_depth'
S'min_samples_split'
S'min_samples_leaf'
S'min_weight_fraction_leaf'
S'max_features'
S'max_leaf_nodes'
S'min_impurity_decrease'
S'min_impurity_split'
S'random_state'
tp1289
sg1275
Nsg1271
Nsg1273
g1274
sg28
g29
sg1281
Nsg1282
Nsbag39
(g40
(I0
tS'b'
tRp1290
(I1
(I3
tg42
(S'f8'
I0
I1
tRp1291
(I3
S'<'
NNNI-1
I-1
I0
tbI00
S'F\x17]t\xd1E\xe7?F\x17]t\xd1E\xe7?\xc4\x1dqG\xdc\x11\xe7?'
tbaa(lp1292
I617
ag4
(g5
g6
NtRp1293
(dp1294
S'warm_start'
p1295
I00
sS'base_estimator'
p1296
g4
(g11
g6
NtRp1297
(dp1298
S'presort'
p1299
I00
sS'splitter'
p1300
S'random'
p1301
sS'min_impurity_decrease'
p1302
F0
sS'min_impurity_split'
p1303
NsS'min_samples_leaf'
p1304
I1
sS'max_features'
p1305
S'auto'
p1306
sS'random_state'
p1307
NsS'criterion'
p1308
S'gini'
p1309
sS'min_weight_fraction_leaf'
p1310
F0
sS'max_leaf_nodes'
p1311
NsS'min_samples_split'
p1312
I2
sg28
g29
sS'max_depth'
p1313
NsS'class_weight'
p1314
NsbsS'n_jobs'
p1315
Nsg1302
F0
sS'verbose'
p1316
I0
sg1311
NsS'bootstrap'
p1317
I00
sS'oob_score'
p1318
I00
sg1304
I1
sS'n_estimators'
p1319
I100
sg1312
I2
sg1310
F0
sg1308
g1309
sS'estimator_params'
p1320
(S'criterion'
S'max_depth'
S'min_samples_split'
S'min_samples_leaf'
S'min_weight_fraction_leaf'
S'max_features'
S'max_leaf_nodes'
S'min_impurity_decrease'
S'min_impurity_split'
S'random_state'
tp1321
sg1307
Nsg1303
Nsg1305
g1306
sg28
g29
sg1313
Nsg1314
Nsbag39
(g40
(I0
tS'b'
tRp1322
(I1
(I3
tg42
(S'f8'
I0
I1
tRp1323
(I3
S'<'
NNNI-1
I-1
I0
tbI00
S'F\x17]t\xd1E\xe7?\x8c.\xba\xe8\xa2\x8b\xe6?eMYS\xd6\x94\xe5?'
tbaa(lp1324
I244
ag4
(g5
g6
NtRp1325
(dp1326
S'warm_start'
p1327
I00
sS'base_estimator'
p1328
g4
(g11
g6
NtRp1329
(dp1330
S'presort'
p1331
I00
sS'splitter'
p1332
S'random'
p1333
sS'min_impurity_decrease'
p1334
F0
sS'min_impurity_split'
p1335
NsS'min_samples_leaf'
p1336
I1
sS'max_features'
p1337
S'auto'
p1338
sS'random_state'
p1339
NsS'criterion'
p1340
S'gini'
p1341
sS'min_weight_fraction_leaf'
p1342
F0
sS'max_leaf_nodes'
p1343
NsS'min_samples_split'
p1344
I2
sg28
g29
sS'max_depth'
p1345
NsS'class_weight'
p1346
NsbsS'n_jobs'
p1347
Nsg1334
F0
sS'verbose'
p1348
I0
sg1343
NsS'bootstrap'
p1349
I00
sS'oob_score'
p1350
I00
sg1336
I1
sS'n_estimators'
p1351
I100
sg1344
I2
sg1342
F0
sg1340
g1341
sS'estimator_params'
p1352
(S'criterion'
S'max_depth'
S'min_samples_split'
S'min_samples_leaf'
S'min_weight_fraction_leaf'
S'max_features'
S'max_leaf_nodes'
S'min_impurity_decrease'
S'min_impurity_split'
S'random_state'
tp1353
sg1339
Nsg1335
Nsg1337
g1338
sg28
g29
sg1345
Nsg1346
Nsbag39
(g40
(I0
tS'b'
tRp1354
(I1
(I3
tg42
(S'f8'
I0
I1
tRp1355
(I3
S'<'
NNNI-1
I-1
I0
tbI00
S'333333\xe3?\x06}A_\xd0\x17\xe4?w\xc4\x1dqG\xdc\xe1?'
tbaa(lp1356
I22
ag4
(g5
g6
NtRp1357
(dp1358
S'warm_start'
p1359
I00
sS'base_estimator'
p1360
g4
(g11
g6
NtRp1361
(dp1362
S'presort'
p1363
I00
sS'splitter'
p1364
S'random'
p1365
sS'min_impurity_decrease'
p1366
F0
sS'min_impurity_split'
p1367
NsS'min_samples_leaf'
p1368
I1
sS'max_features'
p1369
S'auto'
p1370
sS'random_state'
p1371
NsS'criterion'
p1372
S'gini'
p1373
sS'min_weight_fraction_leaf'
p1374
F0
sS'max_leaf_nodes'
p1375
NsS'min_samples_split'
p1376
I2
sg28
g29
sS'max_depth'
p1377
NsS'class_weight'
p1378
NsbsS'n_jobs'
p1379
Nsg1366
F0
sS'verbose'
p1380
I0
sg1375
NsS'bootstrap'
p1381
I00
sS'oob_score'
p1382
I00
sg1368
I1
sS'n_estimators'
p1383
I100
sg1376
I2
sg1374
F0
sg1372
g1373
sS'estimator_params'
p1384
(S'criterion'
S'max_depth'
S'min_samples_split'
S'min_samples_leaf'
S'min_weight_fraction_leaf'
S'max_features'
S'max_leaf_nodes'
S'min_impurity_decrease'
S'min_impurity_split'
S'random_state'
tp1385
sg1371
Nsg1367
Nsg1369
g1370
sg28
g29
sg1377
Nsg1378
Nsbag39
(g40
(I0
tS'b'
tRp1386
(I1
(I3
tg42
(S'f8'
I0
I1
tRp1387
(I3
S'<'
NNNI-1
I-1
I0
tbI00
S'\xfa\xa4O\xfa\xa4O\xea?\xb3\xa6\xac)k\xca\xea?\xb3\xa6\xac)k\xca\xea?'
tbaa(lp1388
I969
ag4
(g5
g6
NtRp1389
(dp1390
S'warm_start'
p1391
I00
sS'base_estimator'
p1392
g4
(g11
g6
NtRp1393
(dp1394
S'presort'
p1395
I00
sS'splitter'
p1396
S'random'
p1397
sS'min_impurity_decrease'
p1398
F0
sS'min_impurity_split'
p1399
NsS'min_samples_leaf'
p1400
I1
sS'max_features'
p1401
S'auto'
p1402
sS'random_state'
p1403
NsS'criterion'
p1404
S'gini'
p1405
sS'min_weight_fraction_leaf'
p1406
F0
sS'max_leaf_nodes'
p1407
NsS'min_samples_split'
p1408
I2
sg28
g29
sS'max_depth'
p1409
NsS'class_weight'
p1410
NsbsS'n_jobs'
p1411
Nsg1398
F0
sS'verbose'
p1412
I0
sg1407
NsS'bootstrap'
p1413
I00
sS'oob_score'
p1414
I00
sg1400
I1
sS'n_estimators'
p1415
I100
sg1408
I2
sg1406
F0
sg1404
g1405
sS'estimator_params'
p1416
(S'criterion'
S'max_depth'
S'min_samples_split'
S'min_samples_leaf'
S'min_weight_fraction_leaf'
S'max_features'
S'max_leaf_nodes'
S'min_impurity_decrease'
S'min_impurity_split'
S'random_state'
tp1417
sg1403
Nsg1399
Nsg1401
g1402
sg28
g29
sg1409
Nsg1410
Nsbag39
(g40
(I0
tS'b'
tRp1418
(I1
(I3
tg42
(S'f8'
I0
I1
tRp1419
(I3
S'<'
NNNI-1
I-1
I0
tbI00
S'\xa3\x8b.\xba\xe8\xa2\xeb?\xa3\x8b.\xba\xe8\xa2\xeb?\xe2\x8e\xb8#\xee\x88\xeb?'
tbaa(lp1420
I966
ag4
(g5
g6
NtRp1421
(dp1422
S'warm_start'
p1423
I00
sS'base_estimator'
p1424
g4
(g11
g6
NtRp1425
(dp1426
S'presort'
p1427
I00
sS'splitter'
p1428
S'random'
p1429
sS'min_impurity_decrease'
p1430
F0
sS'min_impurity_split'
p1431
NsS'min_samples_leaf'
p1432
I1
sS'max_features'
p1433
S'auto'
p1434
sS'random_state'
p1435
NsS'criterion'
p1436
S'gini'
p1437
sS'min_weight_fraction_leaf'
p1438
F0
sS'max_leaf_nodes'
p1439
NsS'min_samples_split'
p1440
I2
sg28
g29
sS'max_depth'
p1441
NsS'class_weight'
p1442
NsbsS'n_jobs'
p1443
Nsg1430
F0
sS'verbose'
p1444
I0
sg1439
NsS'bootstrap'
p1445
I00
sS'oob_score'
p1446
I00
sg1432
I1
sS'n_estimators'
p1447
I100
sg1440
I2
sg1438
F0
sg1436
g1437
sS'estimator_params'
p1448
(S'criterion'
S'max_depth'
S'min_samples_split'
S'min_samples_leaf'
S'min_weight_fraction_leaf'
S'max_features'
S'max_leaf_nodes'
S'min_impurity_decrease'
S'min_impurity_split'
S'random_state'
tp1449
sg1435
Nsg1431
Nsg1433
g1434
sg28
g29
sg1441
Nsg1442
Nsbag39
(g40
(I0
tS'b'
tRp1450
(I1
(I3
tg42
(S'f8'
I0
I1
tRp1451
(I3
S'<'
NNNI-1
I-1
I0
tbI00
S'\xf5I\x9f\xf4I\x9f\xe4?\xa7\xac)k\xca\x9a\xe2?\xc4\x1dqG\xdc\x11\xe7?'
tbaa(lp1452
I835
ag4
(g5
g6
NtRp1453
(dp1454
S'warm_start'
p1455
I00
sS'base_estimator'
p1456
g4
(g11
g6
NtRp1457
(dp1458
S'presort'
p1459
I00
sS'splitter'
p1460
S'random'
p1461
sS'min_impurity_decrease'
p1462
F0
sS'min_impurity_split'
p1463
NsS'min_samples_leaf'
p1464
I1
sS'max_features'
p1465
S'auto'
p1466
sS'random_state'
p1467
NsS'criterion'
p1468
S'gini'
p1469
sS'min_weight_fraction_leaf'
p1470
F0
sS'max_leaf_nodes'
p1471
NsS'min_samples_split'
p1472
I2
sg28
g29
sS'max_depth'
p1473
NsS'class_weight'
p1474
NsbsS'n_jobs'
p1475
Nsg1462
F0
sS'verbose'
p1476
I0
sg1471
NsS'bootstrap'
p1477
I00
sS'oob_score'
p1478
I00
sg1464
I1
sS'n_estimators'
p1479
I100
sg1472
I2
sg1470
F0
sg1468
g1469
sS'estimator_params'
p1480
(S'criterion'
S'max_depth'
S'min_samples_split'
S'min_samples_leaf'
S'min_weight_fraction_leaf'
S'max_features'
S'max_leaf_nodes'
S'min_impurity_decrease'
S'min_impurity_split'
S'random_state'
tp1481
sg1467
Nsg1463
Nsg1465
g1466
sg28
g29
sg1473
Nsg1474
Nsbag39
(g40
(I0
tS'b'
tRp1482
(I1
(I3
tg42
(S'f8'
I0
I1
tRp1483
(I3
S'<'
NNNI-1
I-1
I0
tbI00
S'/\xba\xe8\xa2\x8b.\xea?\xa3\x8b.\xba\xe8\xa2\xeb?\x12w\xc4\x1dqG\xec?'
tbaa(lp1484
I225
ag4
(g5
g6
NtRp1485
(dp1486
S'warm_start'
p1487
I00
sS'base_estimator'
p1488
g4
(g11
g6
NtRp1489
(dp1490
S'presort'
p1491
I00
sS'splitter'
p1492
S'random'
p1493
sS'min_impurity_decrease'
p1494
F0
sS'min_impurity_split'
p1495
NsS'min_samples_leaf'
p1496
I1
sS'max_features'
p1497
S'auto'
p1498
sS'random_state'
p1499
NsS'criterion'
p1500
S'gini'
p1501
sS'min_weight_fraction_leaf'
p1502
F0
sS'max_leaf_nodes'
p1503
NsS'min_samples_split'
p1504
I2
sg28
g29
sS'max_depth'
p1505
NsS'class_weight'
p1506
NsbsS'n_jobs'
p1507
Nsg1494
F0
sS'verbose'
p1508
I0
sg1503
NsS'bootstrap'
p1509
I00
sS'oob_score'
p1510
I00
sg1496
I1
sS'n_estimators'
p1511
I100
sg1504
I2
sg1502
F0
sg1500
g1501
sS'estimator_params'
p1512
(S'criterion'
S'max_depth'
S'min_samples_split'
S'min_samples_leaf'
S'min_weight_fraction_leaf'
S'max_features'
S'max_leaf_nodes'
S'min_impurity_decrease'
S'min_impurity_split'
S'random_state'
tp1513
sg1499
Nsg1495
Nsg1497
g1498
sg28
g29
sg1505
Nsg1506
Nsbag39
(g40
(I0
tS'b'
tRp1514
(I1
(I3
tg42
(S'f8'
I0
I1
tRp1515
(I3
S'<'
NNNI-1
I-1
I0
tbI00
S']t\xd1E\x17]\xe4?]t\xd1E\x17]\xe4?6eMYS\xd6\xe4?'
tbaa(lp1516
I996
ag4
(g5
g6
NtRp1517
(dp1518
S'warm_start'
p1519
I00
sS'base_estimator'
p1520
g4
(g11
g6
NtRp1521
(dp1522
S'presort'
p1523
I00
sS'splitter'
p1524
S'random'
p1525
sS'min_impurity_decrease'
p1526
F0
sS'min_impurity_split'
p1527
NsS'min_samples_leaf'
p1528
I1
sS'max_features'
p1529
S'auto'
p1530
sS'random_state'
p1531
NsS'criterion'
p1532
S'gini'
p1533
sS'min_weight_fraction_leaf'
p1534
F0
sS'max_leaf_nodes'
p1535
NsS'min_samples_split'
p1536
I2
sg28
g29
sS'max_depth'
p1537
NsS'class_weight'
p1538
NsbsS'n_jobs'
p1539
Nsg1526
F0
sS'verbose'
p1540
I0
sg1535
NsS'bootstrap'
p1541
I00
sS'oob_score'
p1542
I00
sg1528
I1
sS'n_estimators'
p1543
I100
sg1536
I2
sg1534
F0
sg1532
g1533
sS'estimator_params'
p1544
(S'criterion'
S'max_depth'
S'min_samples_split'
S'min_samples_leaf'
S'min_weight_fraction_leaf'
S'max_features'
S'max_leaf_nodes'
S'min_impurity_decrease'
S'min_impurity_split'
S'random_state'
tp1545
sg1531
Nsg1527
Nsg1529
g1530
sg28
g29
sg1537
Nsg1538
Nsbag39
(g40
(I0
tS'b'
tRp1546
(I1
(I3
tg42
(S'f8'
I0
I1
tRp1547
(I3
S'<'
NNNI-1
I-1
I0
tbI00
S'\xf5I\x9f\xf4I\x9f\xe4?\x955eMYS\xe6?\x06}A_\xd0\x17\xe4?'
tbaa(lp1548
I656
ag4
(g5
g6
NtRp1549
(dp1550
S'warm_start'
p1551
I00
sS'base_estimator'
p1552
g4
(g11
g6
NtRp1553
(dp1554
S'presort'
p1555
I00
sS'splitter'
p1556
S'random'
p1557
sS'min_impurity_decrease'
p1558
F0
sS'min_impurity_split'
p1559
NsS'min_samples_leaf'
p1560
I1
sS'max_features'
p1561
S'auto'
p1562
sS'random_state'
p1563
NsS'criterion'
p1564
S'gini'
p1565
sS'min_weight_fraction_leaf'
p1566
F0
sS'max_leaf_nodes'
p1567
NsS'min_samples_split'
p1568
I2
sg28
g29
sS'max_depth'
p1569
NsS'class_weight'
p1570
NsbsS'n_jobs'
p1571
Nsg1558
F0
sS'verbose'
p1572
I0
sg1567
NsS'bootstrap'
p1573
I00
sS'oob_score'
p1574
I00
sg1560
I1
sS'n_estimators'
p1575
I100
sg1568
I2
sg1566
F0
sg1564
g1565
sS'estimator_params'
p1576
(S'criterion'
S'max_depth'
S'min_samples_split'
S'min_samples_leaf'
S'min_weight_fraction_leaf'
S'max_features'
S'max_leaf_nodes'
S'min_impurity_decrease'
S'min_impurity_split'
S'random_state'
tp1577
sg1563
Nsg1559
Nsg1561
g1562
sg28
g29
sg1569
Nsg1570
Nsbag39
(g40
(I0
tS'b'
tRp1578
(I1
(I3
tg42
(S'f8'
I0
I1
tRp1579
(I3
S'<'
NNNI-1
I-1
I0
tbI00
S'\xd8\x82-\xd8\x82-\xe8?S\xd6\x945eM\xe9?S\xd6\x945eM\xe9?'
tbaa(lp1580
I217
ag4
(g5
g6
NtRp1581
(dp1582
S'warm_start'
p1583
I00
sS'base_estimator'
p1584
g4
(g11
g6
NtRp1585
(dp1586
S'presort'
p1587
I00
sS'splitter'
p1588
S'random'
p1589
sS'min_impurity_decrease'
p1590
F0
sS'min_impurity_split'
p1591
NsS'min_samples_leaf'
p1592
I1
sS'max_features'
p1593
S'auto'
p1594
sS'random_state'
p1595
NsS'criterion'
p1596
S'gini'
p1597
sS'min_weight_fraction_leaf'
p1598
F0
sS'max_leaf_nodes'
p1599
NsS'min_samples_split'
p1600
I2
sg28
g29
sS'max_depth'
p1601
NsS'class_weight'
p1602
NsbsS'n_jobs'
p1603
Nsg1590
F0
sS'verbose'
p1604
I0
sg1599
NsS'bootstrap'
p1605
I00
sS'oob_score'
p1606
I00
sg1592
I1
sS'n_estimators'
p1607
I100
sg1600
I2
sg1598
F0
sg1596
g1597
sS'estimator_params'
p1608
(S'criterion'
S'max_depth'
S'min_samples_split'
S'min_samples_leaf'
S'min_weight_fraction_leaf'
S'max_features'
S'max_leaf_nodes'
S'min_impurity_decrease'
S'min_impurity_split'
S'random_state'
tp1609
sg1595
Nsg1591
Nsg1593
g1594
sg28
g29
sg1601
Nsg1602
Nsbag39
(g40
(I0
tS'b'
tRp1610
(I1
(I3
tg42
(S'f8'
I0
I1
tRp1611
(I3
S'<'
NNNI-1
I-1
I0
tbI00
S'\x00\x00\x00\x00\x00\x00\xe8?\xba\xe8\xa2\x8b.\xba\xe8?\xf4\x05}A_\xd0\xe7?'
tbaa(lp1612
I63
ag4
(g5
g6
NtRp1613
(dp1614
S'warm_start'
p1615
I00
sS'base_estimator'
p1616
g4
(g11
g6
NtRp1617
(dp1618
S'presort'
p1619
I00
sS'splitter'
p1620
S'random'
p1621
sS'min_impurity_decrease'
p1622
F0
sS'min_impurity_split'
p1623
NsS'min_samples_leaf'
p1624
I1
sS'max_features'
p1625
S'auto'
p1626
sS'random_state'
p1627
NsS'criterion'
p1628
S'gini'
p1629
sS'min_weight_fraction_leaf'
p1630
F0
sS'max_leaf_nodes'
p1631
NsS'min_samples_split'
p1632
I2
sg28
g29
sS'max_depth'
p1633
NsS'class_weight'
p1634
NsbsS'n_jobs'
p1635
Nsg1622
F0
sS'verbose'
p1636
I0
sg1631
NsS'bootstrap'
p1637
I00
sS'oob_score'
p1638
I00
sg1624
I1
sS'n_estimators'
p1639
I100
sg1632
I2
sg1630
F0
sg1628
g1629
sS'estimator_params'
p1640
(S'criterion'
S'max_depth'
S'min_samples_split'
S'min_samples_leaf'
S'min_weight_fraction_leaf'
S'max_features'
S'max_leaf_nodes'
S'min_impurity_decrease'
S'min_impurity_split'
S'random_state'
tp1641
sg1627
Nsg1623
Nsg1625
g1626
sg28
g29
sg1633
Nsg1634
Nsbag39
(g40
(I0
tS'b'
tRp1642
(I1
(I3
tg42
(S'f8'
I0
I1
tRp1643
(I3
S'<'
NNNI-1
I-1
I0
tbI00
S'/\xba\xe8\xa2\x8b.\xe2?\xe9\xa2\x8b.\xba\xe8\xe2?\x06}A_\xd0\x17\xe4?'
tbaa(lp1644
I953
ag4
(g5
g6
NtRp1645
(dp1646
S'warm_start'
p1647
I00
sS'base_estimator'
p1648
g4
(g11
g6
NtRp1649
(dp1650
S'presort'
p1651
I00
sS'splitter'
p1652
S'random'
p1653
sS'min_impurity_decrease'
p1654
F0
sS'min_impurity_split'
p1655
NsS'min_samples_leaf'
p1656
I1
sS'max_features'
p1657
S'auto'
p1658
sS'random_state'
p1659
NsS'criterion'
p1660
S'gini'
p1661
sS'min_weight_fraction_leaf'
p1662
F0
sS'max_leaf_nodes'
p1663
NsS'min_samples_split'
p1664
I2
sg28
g29
sS'max_depth'
p1665
NsS'class_weight'
p1666
NsbsS'n_jobs'
p1667
Nsg1654
F0
sS'verbose'
p1668
I0
sg1663
NsS'bootstrap'
p1669
I00
sS'oob_score'
p1670
I00
sg1656
I1
sS'n_estimators'
p1671
I100
sg1664
I2
sg1662
F0
sg1660
g1661
sS'estimator_params'
p1672
(S'criterion'
S'max_depth'
S'min_samples_split'
S'min_samples_leaf'
S'min_weight_fraction_leaf'
S'max_features'
S'max_leaf_nodes'
S'min_impurity_decrease'
S'min_impurity_split'
S'random_state'
tp1673
sg1659
Nsg1655
Nsg1657
g1658
sg28
g29
sg1665
Nsg1666
Nsbag39
(g40
(I0
tS'b'
tRp1674
(I1
(I3
tg42
(S'f8'
I0
I1
tRp1675
(I3
S'<'
NNNI-1
I-1
I0
tbI00
S't\xd1E\x17]t\xe9?t\xd1E\x17]t\xe9?\x83\xbe\xa0/\xe8\x0b\xea?'
tbaa(lp1676
I920
ag4
(g5
g6
NtRp1677
(dp1678
S'warm_start'
p1679
I00
sS'base_estimator'
p1680
g4
(g11
g6
NtRp1681
(dp1682
S'presort'
p1683
I00
sS'splitter'
p1684
S'random'
p1685
sS'min_impurity_decrease'
p1686
F0
sS'min_impurity_split'
p1687
NsS'min_samples_leaf'
p1688
I1
sS'max_features'
p1689
S'auto'
p1690
sS'random_state'
p1691
NsS'criterion'
p1692
S'gini'
p1693
sS'min_weight_fraction_leaf'
p1694
F0
sS'max_leaf_nodes'
p1695
NsS'min_samples_split'
p1696
I2
sg28
g29
sS'max_depth'
p1697
NsS'class_weight'
p1698
NsbsS'n_jobs'
p1699
Nsg1686
F0
sS'verbose'
p1700
I0
sg1695
NsS'bootstrap'
p1701
I00
sS'oob_score'
p1702
I00
sg1688
I1
sS'n_estimators'
p1703
I100
sg1696
I2
sg1694
F0
sg1692
g1693
sS'estimator_params'
p1704
(S'criterion'
S'max_depth'
S'min_samples_split'
S'min_samples_leaf'
S'min_weight_fraction_leaf'
S'max_features'
S'max_leaf_nodes'
S'min_impurity_decrease'
S'min_impurity_split'
S'random_state'
tp1705
sg1691
Nsg1687
Nsg1689
g1690
sg28
g29
sg1697
Nsg1698
Nsbag39
(g40
(I0
tS'b'
tRp1706
(I1
(I3
tg42
(S'f8'
I0
I1
tRp1707
(I3
S'<'
NNNI-1
I-1
I0
tbI00
S'\x8c.\xba\xe8\xa2\x8b\xe6?\x8c.\xba\xe8\xa2\x8b\xe6?\xf4\x05}A_\xd0\xe7?'
tbaa(lp1708
I800
ag4
(g5
g6
NtRp1709
(dp1710
S'warm_start'
p1711
I00
sS'base_estimator'
p1712
g4
(g11
g6
NtRp1713
(dp1714
S'presort'
p1715
I00
sS'splitter'
p1716
S'random'
p1717
sS'min_impurity_decrease'
p1718
F0
sS'min_impurity_split'
p1719
NsS'min_samples_leaf'
p1720
I1
sS'max_features'
p1721
S'auto'
p1722
sS'random_state'
p1723
NsS'criterion'
p1724
S'gini'
p1725
sS'min_weight_fraction_leaf'
p1726
F0
sS'max_leaf_nodes'
p1727
NsS'min_samples_split'
p1728
I2
sg28
g29
sS'max_depth'
p1729
NsS'class_weight'
p1730
NsbsS'n_jobs'
p1731
Nsg1718
F0
sS'verbose'
p1732
I0
sg1727
NsS'bootstrap'
p1733
I00
sS'oob_score'
p1734
I00
sg1720
I1
sS'n_estimators'
p1735
I100
sg1728
I2
sg1726
F0
sg1724
g1725
sS'estimator_params'
p1736
(S'criterion'
S'max_depth'
S'min_samples_split'
S'min_samples_leaf'
S'min_weight_fraction_leaf'
S'max_features'
S'max_leaf_nodes'
S'min_impurity_decrease'
S'min_impurity_split'
S'random_state'
tp1737
sg1723
Nsg1719
Nsg1721
g1722
sg28
g29
sg1729
Nsg1730
Nsbag39
(g40
(I0
tS'b'
tRp1738
(I1
(I3
tg42
(S'f8'
I0
I1
tRp1739
(I3
S'<'
NNNI-1
I-1
I0
tbI00
S'\xba\xe8\xa2\x8b.\xba\xe8?\xba\xe8\xa2\x8b.\xba\xe8?$\xee\x88;\xe2\x8e\xe8?'
tbaa(lp1740
I891
ag4
(g5
g6
NtRp1741
(dp1742
S'warm_start'
p1743
I00
sS'base_estimator'
p1744
g4
(g11
g6
NtRp1745
(dp1746
S'presort'
p1747
I00
sS'splitter'
p1748
S'random'
p1749
sS'min_impurity_decrease'
p1750
F0
sS'min_impurity_split'
p1751
NsS'min_samples_leaf'
p1752
I1
sS'max_features'
p1753
S'auto'
p1754
sS'random_state'
p1755
NsS'criterion'
p1756
S'gini'
p1757
sS'min_weight_fraction_leaf'
p1758
F0
sS'max_leaf_nodes'
p1759
NsS'min_samples_split'
p1760
I2
sg28
g29
sS'max_depth'
p1761
NsS'class_weight'
p1762
NsbsS'n_jobs'
p1763
Nsg1750
F0
sS'verbose'
p1764
I0
sg1759
NsS'bootstrap'
p1765
I00
sS'oob_score'
p1766
I00
sg1752
I1
sS'n_estimators'
p1767
I100
sg1760
I2
sg1758
F0
sg1756
g1757
sS'estimator_params'
p1768
(S'criterion'
S'max_depth'
S'min_samples_split'
S'min_samples_leaf'
S'min_weight_fraction_leaf'
S'max_features'
S'max_leaf_nodes'
S'min_impurity_decrease'
S'min_impurity_split'
S'random_state'
tp1769
sg1755
Nsg1751
Nsg1753
g1754
sg28
g29
sg1761
Nsg1762
Nsbag39
(g40
(I0
tS'b'
tRp1770
(I1
(I3
tg42
(S'f8'
I0
I1
tRp1771
(I3
S'<'
NNNI-1
I-1
I0
tbI00
S"}\xd2'}\xd2'\xed?qG\xdc\x11w\xc4\xed?qG\xdc\x11w\xc4\xed?"
tbaa(lp1772
I1028
ag4
(g5
g6
NtRp1773
(dp1774
S'warm_start'
p1775
I00
sS'base_estimator'
p1776
g4
(g11
g6
NtRp1777
(dp1778
S'presort'
p1779
I00
sS'splitter'
p1780
S'random'
p1781
sS'min_impurity_decrease'
p1782
F0
sS'min_impurity_split'
p1783
NsS'min_samples_leaf'
p1784
I1
sS'max_features'
p1785
S'auto'
p1786
sS'random_state'
p1787
NsS'criterion'
p1788
S'gini'
p1789
sS'min_weight_fraction_leaf'
p1790
F0
sS'max_leaf_nodes'
p1791
NsS'min_samples_split'
p1792
I2
sg28
g29
sS'max_depth'
p1793
NsS'class_weight'
p1794
NsbsS'n_jobs'
p1795
Nsg1782
F0
sS'verbose'
p1796
I0
sg1791
NsS'bootstrap'
p1797
I00
sS'oob_score'
p1798
I00
sg1784
I1
sS'n_estimators'
p1799
I100
sg1792
I2
sg1790
F0
sg1788
g1789
sS'estimator_params'
p1800
(S'criterion'
S'max_depth'
S'min_samples_split'
S'min_samples_leaf'
S'min_weight_fraction_leaf'
S'max_features'
S'max_leaf_nodes'
S'min_impurity_decrease'
S'min_impurity_split'
S'random_state'
tp1801
sg1787
Nsg1783
Nsg1785
g1786
sg28
g29
sg1793
Nsg1794
Nsbag39
(g40
(I0
tS'b'
tRp1802
(I1
(I3
tg42
(S'f8'
I0
I1
tRp1803
(I3
S'<'
NNNI-1
I-1
I0
tbI00
S'\x00\x00\x00\x00\x00\x00\xe0?t\xd1E\x17]t\xe1?\xd6\x945eMY\xe3?'
tbaa(lp1804
I1033
ag4
(g5
g6
NtRp1805
(dp1806
S'warm_start'
p1807
I00
sS'base_estimator'
p1808
g4
(g11
g6
NtRp1809
(dp1810
S'presort'
p1811
I00
sS'splitter'
p1812
S'random'
p1813
sS'min_impurity_decrease'
p1814
F0
sS'min_impurity_split'
p1815
NsS'min_samples_leaf'
p1816
I1
sS'max_features'
p1817
S'auto'
p1818
sS'random_state'
p1819
NsS'criterion'
p1820
S'gini'
p1821
sS'min_weight_fraction_leaf'
p1822
F0
sS'max_leaf_nodes'
p1823
NsS'min_samples_split'
p1824
I2
sg28
g29
sS'max_depth'
p1825
NsS'class_weight'
p1826
NsbsS'n_jobs'
p1827
Nsg1814
F0
sS'verbose'
p1828
I0
sg1823
NsS'bootstrap'
p1829
I00
sS'oob_score'
p1830
I00
sg1816
I1
sS'n_estimators'
p1831
I100
sg1824
I2
sg1822
F0
sg1820
g1821
sS'estimator_params'
p1832
(S'criterion'
S'max_depth'
S'min_samples_split'
S'min_samples_leaf'
S'min_weight_fraction_leaf'
S'max_features'
S'max_leaf_nodes'
S'min_impurity_decrease'
S'min_impurity_split'
S'random_state'
tp1833
sg1819
Nsg1815
Nsg1817
g1818
sg28
g29
sg1825
Nsg1826
Nsbag39
(g40
(I0
tS'b'
tRp1834
(I1
(I3
tg42
(S'f8'
I0
I1
tRp1835
(I3
S'<'
NNNI-1
I-1
I0
tbI00
S'\xbc\xbb\xbb\xbb\xbb\xbb\xeb?\x12w\xc4\x1dqG\xec?\x12w\xc4\x1dqG\xec?'
tbaa(lp1836
I178
ag4
(g5
g6
NtRp1837
(dp1838
S'warm_start'
p1839
I00
sS'base_estimator'
p1840
g4
(g11
g6
NtRp1841
(dp1842
S'presort'
p1843
I00
sS'splitter'
p1844
S'random'
p1845
sS'min_impurity_decrease'
p1846
F0
sS'min_impurity_split'
p1847
NsS'min_samples_leaf'
p1848
I1
sS'max_features'
p1849
S'auto'
p1850
sS'random_state'
p1851
NsS'criterion'
p1852
S'gini'
p1853
sS'min_weight_fraction_leaf'
p1854
F0
sS'max_leaf_nodes'
p1855
NsS'min_samples_split'
p1856
I2
sg28
g29
sS'max_depth'
p1857
NsS'class_weight'
p1858
NsbsS'n_jobs'
p1859
Nsg1846
F0
sS'verbose'
p1860
I0
sg1855
NsS'bootstrap'
p1861
I00
sS'oob_score'
p1862
I00
sg1848
I1
sS'n_estimators'
p1863
I100
sg1856
I2
sg1854
F0
sg1852
g1853
sS'estimator_params'
p1864
(S'criterion'
S'max_depth'
S'min_samples_split'
S'min_samples_leaf'
S'min_weight_fraction_leaf'
S'max_features'
S'max_leaf_nodes'
S'min_impurity_decrease'
S'min_impurity_split'
S'random_state'
tp1865
sg1851
Nsg1847
Nsg1849
g1850
sg28
g29
sg1857
Nsg1858
Nsbag39
(g40
(I0
tS'b'
tRp1866
(I1
(I3
tg42
(S'f8'
I0
I1
tRp1867
(I3
S'<'
NNNI-1
I-1
I0
tbI00
S'/\xba\xe8\xa2\x8b.\xea?/\xba\xe8\xa2\x8b.\xea?\x83\xbe\xa0/\xe8\x0b\xea?'
tbaa(lp1868
I659
ag4
(g5
g6
NtRp1869
(dp1870
S'warm_start'
p1871
I00
sS'base_estimator'
p1872
g4
(g11
g6
NtRp1873
(dp1874
S'presort'
p1875
I00
sS'splitter'
p1876
S'random'
p1877
sS'min_impurity_decrease'
p1878
F0
sS'min_impurity_split'
p1879
NsS'min_samples_leaf'
p1880
I1
sS'max_features'
p1881
S'auto'
p1882
sS'random_state'
p1883
NsS'criterion'
p1884
S'gini'
p1885
sS'min_weight_fraction_leaf'
p1886
F0
sS'max_leaf_nodes'
p1887
NsS'min_samples_split'
p1888
I2
sg28
g29
sS'max_depth'
p1889
NsS'class_weight'
p1890
NsbsS'n_jobs'
p1891
Nsg1878
F0
sS'verbose'
p1892
I0
sg1887
NsS'bootstrap'
p1893
I00
sS'oob_score'
p1894
I00
sg1880
I1
sS'n_estimators'
p1895
I100
sg1888
I2
sg1886
F0
sg1884
g1885
sS'estimator_params'
p1896
(S'criterion'
S'max_depth'
S'min_samples_split'
S'min_samples_leaf'
S'min_weight_fraction_leaf'
S'max_features'
S'max_leaf_nodes'
S'min_impurity_decrease'
S'min_impurity_split'
S'random_state'
tp1897
sg1883
Nsg1879
Nsg1881
g1882
sg28
g29
sg1889
Nsg1890
Nsbag39
(g40
(I0
tS'b'
tRp1898
(I1
(I3
tg42
(S'f8'
I0
I1
tRp1899
(I3
S'<'
NNNI-1
I-1
I0
tbI00
S't\xd1E\x17]t\xe9?t\xd1E\x17]t\xe9?S\xd6\x945eM\xe9?'
tbaa(lp1900
I35
ag4
(g5
g6
NtRp1901
(dp1902
S'warm_start'
p1903
I00
sS'base_estimator'
p1904
g4
(g11
g6
NtRp1905
(dp1906
S'presort'
p1907
I00
sS'splitter'
p1908
S'random'
p1909
sS'min_impurity_decrease'
p1910
F0
sS'min_impurity_split'
p1911
NsS'min_samples_leaf'
p1912
I1
sS'max_features'
p1913
S'auto'
p1914
sS'random_state'
p1915
NsS'criterion'
p1916
S'gini'
p1917
sS'min_weight_fraction_leaf'
p1918
F0
sS'max_leaf_nodes'
p1919
NsS'min_samples_split'
p1920
I2
sg28
g29
sS'max_depth'
p1921
NsS'class_weight'
p1922
NsbsS'n_jobs'
p1923
Nsg1910
F0
sS'verbose'
p1924
I0
sg1919
NsS'bootstrap'
p1925
I00
sS'oob_score'
p1926
I00
sg1912
I1
sS'n_estimators'
p1927
I100
sg1920
I2
sg1918
F0
sg1916
g1917
sS'estimator_params'
p1928
(S'criterion'
S'max_depth'
S'min_samples_split'
S'min_samples_leaf'
S'min_weight_fraction_leaf'
S'max_features'
S'max_leaf_nodes'
S'min_impurity_decrease'
S'min_impurity_split'
S'random_state'
tp1929
sg1915
Nsg1911
Nsg1913
g1914
sg28
g29
sg1921
Nsg1922
Nsbag39
(g40
(I0
tS'b'
tRp1930
(I1
(I3
tg42
(S'f8'
I0
I1
tRp1931
(I3
S'<'
NNNI-1
I-1
I0
tbI00
S']t\xd1E\x17]\xec?]t\xd1E\x17]\xec?A_\xd0\x17\xf4\x05\xed?'
tbaa(lp1932
I650
ag4
(g5
g6
NtRp1933
(dp1934
S'warm_start'
p1935
I00
sS'base_estimator'
p1936
g4
(g11
g6
NtRp1937
(dp1938
S'presort'
p1939
I00
sS'splitter'
p1940
S'random'
p1941
sS'min_impurity_decrease'
p1942
F0
sS'min_impurity_split'
p1943
NsS'min_samples_leaf'
p1944
I1
sS'max_features'
p1945
S'auto'
p1946
sS'random_state'
p1947
NsS'criterion'
p1948
S'gini'
p1949
sS'min_weight_fraction_leaf'
p1950
F0
sS'max_leaf_nodes'
p1951
NsS'min_samples_split'
p1952
I2
sg28
g29
sS'max_depth'
p1953
NsS'class_weight'
p1954
NsbsS'n_jobs'
p1955
Nsg1942
F0
sS'verbose'
p1956
I0
sg1951
NsS'bootstrap'
p1957
I00
sS'oob_score'
p1958
I00
sg1944
I1
sS'n_estimators'
p1959
I100
sg1952
I2
sg1950
F0
sg1948
g1949
sS'estimator_params'
p1960
(S'criterion'
S'max_depth'
S'min_samples_split'
S'min_samples_leaf'
S'min_weight_fraction_leaf'
S'max_features'
S'max_leaf_nodes'
S'min_impurity_decrease'
S'min_impurity_split'
S'random_state'
tp1961
sg1947
Nsg1943
Nsg1945
g1946
sg28
g29
sg1953
Nsg1954
Nsbag39
(g40
(I0
tS'b'
tRp1962
(I1
(I3
tg42
(S'f8'
I0
I1
tRp1963
(I3
S'<'
NNNI-1
I-1
I0
tbI00
S'\x1c\xc7q\x1c\xc7q\xec?A_\xd0\x17\xf4\x05\xed?A_\xd0\x17\xf4\x05\xed?'
tbaa(lp1964
I342
ag4
(g5
g6
NtRp1965
(dp1966
S'warm_start'
p1967
I00
sS'base_estimator'
p1968
g4
(g11
g6
NtRp1969
(dp1970
S'presort'
p1971
I00
sS'splitter'
p1972
S'random'
p1973
sS'min_impurity_decrease'
p1974
F0
sS'min_impurity_split'
p1975
NsS'min_samples_leaf'
p1976
I1
sS'max_features'
p1977
S'auto'
p1978
sS'random_state'
p1979
NsS'criterion'
p1980
S'gini'
p1981
sS'min_weight_fraction_leaf'
p1982
F0
sS'max_leaf_nodes'
p1983
NsS'min_samples_split'
p1984
I2
sg28
g29
sS'max_depth'
p1985
NsS'class_weight'
p1986
NsbsS'n_jobs'
p1987
Nsg1974
F0
sS'verbose'
p1988
I0
sg1983
NsS'bootstrap'
p1989
I00
sS'oob_score'
p1990
I00
sg1976
I1
sS'n_estimators'
p1991
I100
sg1984
I2
sg1982
F0
sg1980
g1981
sS'estimator_params'
p1992
(S'criterion'
S'max_depth'
S'min_samples_split'
S'min_samples_leaf'
S'min_weight_fraction_leaf'
S'max_features'
S'max_leaf_nodes'
S'min_impurity_decrease'
S'min_impurity_split'
S'random_state'
tp1993
sg1979
Nsg1975
Nsg1977
g1978
sg28
g29
sg1985
Nsg1986
Nsbag39
(g40
(I0
tS'b'
tRp1994
(I1
(I3
tg42
(S'f8'
I0
I1
tRp1995
(I3
S'<'
NNNI-1
I-1
I0
tbI00
S'\xa3\x8b.\xba\xe8\xa2\xeb?\xa3\x8b.\xba\xe8\xa2\xeb?\xe2\x8e\xb8#\xee\x88\xeb?'
tbaa(lp1996
I460
ag4
(g5
g6
NtRp1997
(dp1998
S'warm_start'
p1999
I00
sS'base_estimator'
p2000
g4
(g11
g6
NtRp2001
(dp2002
S'presort'
p2003
I00
sS'splitter'
p2004
S'random'
p2005
sS'min_impurity_decrease'
p2006
F0
sS'min_impurity_split'
p2007
NsS'min_samples_leaf'
p2008
I1
sS'max_features'
p2009
S'auto'
p2010
sS'random_state'
p2011
NsS'criterion'
p2012
S'gini'
p2013
sS'min_weight_fraction_leaf'
p2014
F0
sS'max_leaf_nodes'
p2015
NsS'min_samples_split'
p2016
I2
sg28
g29
sS'max_depth'
p2017
NsS'class_weight'
p2018
NsbsS'n_jobs'
p2019
Nsg2006
F0
sS'verbose'
p2020
I0
sg2015
NsS'bootstrap'
p2021
I00
sS'oob_score'
p2022
I00
sg2008
I1
sS'n_estimators'
p2023
I100
sg2016
I2
sg2014
F0
sg2012
g2013
sS'estimator_params'
p2024
(S'criterion'
S'max_depth'
S'min_samples_split'
S'min_samples_leaf'
S'min_weight_fraction_leaf'
S'max_features'
S'max_leaf_nodes'
S'min_impurity_decrease'
S'min_impurity_split'
S'random_state'
tp2025
sg2011
Nsg2007
Nsg2009
g2010
sg28
g29
sg2017
Nsg2018
Nsbag39
(g40
(I0
tS'b'
tRp2026
(I1
(I3
tg42
(S'f8'
I0
I1
tRp2027
(I3
S'<'
NNNI-1
I-1
I0
tbI00
S'\xba\xe8\xa2\x8b.\xba\xe8?\xba\xe8\xa2\x8b.\xba\xe8?$\xee\x88;\xe2\x8e\xe8?'
tbaa(lp2028
I401
ag4
(g5
g6
NtRp2029
(dp2030
S'warm_start'
p2031
I00
sS'base_estimator'
p2032
g4
(g11
g6
NtRp2033
(dp2034
S'presort'
p2035
I00
sS'splitter'
p2036
S'random'
p2037
sS'min_impurity_decrease'
p2038
F0
sS'min_impurity_split'
p2039
NsS'min_samples_leaf'
p2040
I1
sS'max_features'
p2041
S'auto'
p2042
sS'random_state'
p2043
NsS'criterion'
p2044
S'gini'
p2045
sS'min_weight_fraction_leaf'
p2046
F0
sS'max_leaf_nodes'
p2047
NsS'min_samples_split'
p2048
I2
sg28
g29
sS'max_depth'
p2049
NsS'class_weight'
p2050
NsbsS'n_jobs'
p2051
Nsg2038
F0
sS'verbose'
p2052
I0
sg2047
NsS'bootstrap'
p2053
I00
sS'oob_score'
p2054
I00
sg2040
I1
sS'n_estimators'
p2055
I100
sg2048
I2
sg2046
F0
sg2044
g2045
sS'estimator_params'
p2056
(S'criterion'
S'max_depth'
S'min_samples_split'
S'min_samples_leaf'
S'min_weight_fraction_leaf'
S'max_features'
S'max_leaf_nodes'
S'min_impurity_decrease'
S'min_impurity_split'
S'random_state'
tp2057
sg2043
Nsg2039
Nsg2041
g2042
sg28
g29
sg2049
Nsg2050
Nsbag39
(g40
(I0
tS'b'
tRp2058
(I1
(I3
tg42
(S'f8'
I0
I1
tRp2059
(I3
S'<'
NNNI-1
I-1
I0
tbI00
S'\x17]t\xd1E\x17\xe5?t\xd1E\x17]t\xe1?\x06}A_\xd0\x17\xe4?'
tbaa(lp2060
I1067
ag4
(g5
g6
NtRp2061
(dp2062
S'warm_start'
p2063
I00
sS'base_estimator'
p2064
g4
(g11
g6
NtRp2065
(dp2066
S'presort'
p2067
I00
sS'splitter'
p2068
S'random'
p2069
sS'min_impurity_decrease'
p2070
F0
sS'min_impurity_split'
p2071
NsS'min_samples_leaf'
p2072
I1
sS'max_features'
p2073
S'auto'
p2074
sS'random_state'
p2075
NsS'criterion'
p2076
S'gini'
p2077
sS'min_weight_fraction_leaf'
p2078
F0
sS'max_leaf_nodes'
p2079
NsS'min_samples_split'
p2080
I2
sg28
g29
sS'max_depth'
p2081
NsS'class_weight'
p2082
NsbsS'n_jobs'
p2083
Nsg2070
F0
sS'verbose'
p2084
I0
sg2079
NsS'bootstrap'
p2085
I00
sS'oob_score'
p2086
I00
sg2072
I1
sS'n_estimators'
p2087
I100
sg2080
I2
sg2078
F0
sg2076
g2077
sS'estimator_params'
p2088
(S'criterion'
S'max_depth'
S'min_samples_split'
S'min_samples_leaf'
S'min_weight_fraction_leaf'
S'max_features'
S'max_leaf_nodes'
S'min_impurity_decrease'
S'min_impurity_split'
S'random_state'
tp2089
sg2075
Nsg2071
Nsg2073
g2074
sg28
g29
sg2081
Nsg2082
Nsbag39
(g40
(I0
tS'b'
tRp2090
(I1
(I3
tg42
(S'f8'
I0
I1
tRp2091
(I3
S'<'
NNNI-1
I-1
I0
tbI00
S']t\xd1E\x17]\xec?]t\xd1E\x17]\xec?A_\xd0\x17\xf4\x05\xed?'
tbaa(lp2092
I186
ag4
(g5
g6
NtRp2093
(dp2094
S'warm_start'
p2095
I00
sS'base_estimator'
p2096
g4
(g11
g6
NtRp2097
(dp2098
S'presort'
p2099
I00
sS'splitter'
p2100
S'random'
p2101
sS'min_impurity_decrease'
p2102
F0
sS'min_impurity_split'
p2103
NsS'min_samples_leaf'
p2104
I1
sS'max_features'
p2105
S'auto'
p2106
sS'random_state'
p2107
NsS'criterion'
p2108
S'gini'
p2109
sS'min_weight_fraction_leaf'
p2110
F0
sS'max_leaf_nodes'
p2111
NsS'min_samples_split'
p2112
I2
sg28
g29
sS'max_depth'
p2113
NsS'class_weight'
p2114
NsbsS'n_jobs'
p2115
Nsg2102
F0
sS'verbose'
p2116
I0
sg2111
NsS'bootstrap'
p2117
I00
sS'oob_score'
p2118
I00
sg2104
I1
sS'n_estimators'
p2119
I100
sg2112
I2
sg2110
F0
sg2108
g2109
sS'estimator_params'
p2120
(S'criterion'
S'max_depth'
S'min_samples_split'
S'min_samples_leaf'
S'min_weight_fraction_leaf'
S'max_features'
S'max_leaf_nodes'
S'min_impurity_decrease'
S'min_impurity_split'
S'random_state'
tp2121
sg2107
Nsg2103
Nsg2105
g2106
sg28
g29
sg2113
Nsg2114
Nsbag39
(g40
(I0
tS'b'
tRp2122
(I1
(I3
tg42
(S'f8'
I0
I1
tRp2123
(I3
S'<'
NNNI-1
I-1
I0
tbI00
S'F\x17]t\xd1E\xe7?\x8c.\xba\xe8\xa2\x8b\xe6?eMYS\xd6\x94\xe5?'
tbaa(lp2124
I950
ag4
(g5
g6
NtRp2125
(dp2126
S'warm_start'
p2127
I00
sS'base_estimator'
p2128
g4
(g11
g6
NtRp2129
(dp2130
S'presort'
p2131
I00
sS'splitter'
p2132
S'random'
p2133
sS'min_impurity_decrease'
p2134
F0
sS'min_impurity_split'
p2135
NsS'min_samples_leaf'
p2136
I1
sS'max_features'
p2137
S'auto'
p2138
sS'random_state'
p2139
NsS'criterion'
p2140
S'gini'
p2141
sS'min_weight_fraction_leaf'
p2142
F0
sS'max_leaf_nodes'
p2143
NsS'min_samples_split'
p2144
I2
sg28
g29
sS'max_depth'
p2145
NsS'class_weight'
p2146
NsbsS'n_jobs'
p2147
Nsg2134
F0
sS'verbose'
p2148
I0
sg2143
NsS'bootstrap'
p2149
I00
sS'oob_score'
p2150
I00
sg2136
I1
sS'n_estimators'
p2151
I100
sg2144
I2
sg2142
F0
sg2140
g2141
sS'estimator_params'
p2152
(S'criterion'
S'max_depth'
S'min_samples_split'
S'min_samples_leaf'
S'min_weight_fraction_leaf'
S'max_features'
S'max_leaf_nodes'
S'min_impurity_decrease'
S'min_impurity_split'
S'random_state'
tp2153
sg2139
Nsg2135
Nsg2137
g2138
sg28
g29
sg2145
Nsg2146
Nsbag39
(g40
(I0
tS'b'
tRp2154
(I1
(I3
tg42
(S'f8'
I0
I1
tRp2155
(I3
S'<'
NNNI-1
I-1
I0
tbI00
S'[\xb0\x05[\xb0\x05\xeb?\xe2\x8e\xb8#\xee\x88\xeb?\xe2\x8e\xb8#\xee\x88\xeb?'
tbaa(lp2156
I324
ag4
(g5
g6
NtRp2157
(dp2158
S'warm_start'
p2159
I00
sS'base_estimator'
p2160
g4
(g11
g6
NtRp2161
(dp2162
S'presort'
p2163
I00
sS'splitter'
p2164
S'random'
p2165
sS'min_impurity_decrease'
p2166
F0
sS'min_impurity_split'
p2167
NsS'min_samples_leaf'
p2168
I1
sS'max_features'
p2169
S'auto'
p2170
sS'random_state'
p2171
NsS'criterion'
p2172
S'gini'
p2173
sS'min_weight_fraction_leaf'
p2174
F0
sS'max_leaf_nodes'
p2175
NsS'min_samples_split'
p2176
I2
sg28
g29
sS'max_depth'
p2177
NsS'class_weight'
p2178
NsbsS'n_jobs'
p2179
Nsg2166
F0
sS'verbose'
p2180
I0
sg2175
NsS'bootstrap'
p2181
I00
sS'oob_score'
p2182
I00
sg2168
I1
sS'n_estimators'
p2183
I100
sg2176
I2
sg2174
F0
sg2172
g2173
sS'estimator_params'
p2184
(S'criterion'
S'max_depth'
S'min_samples_split'
S'min_samples_leaf'
S'min_weight_fraction_leaf'
S'max_features'
S'max_leaf_nodes'
S'min_impurity_decrease'
S'min_impurity_split'
S'random_state'
tp2185
sg2171
Nsg2167
Nsg2169
g2170
sg28
g29
sg2177
Nsg2178
Nsbag39
(g40
(I0
tS'b'
tRp2186
(I1
(I3
tg42
(S'f8'
I0
I1
tRp2187
(I3
S'<'
NNNI-1
I-1
I0
tbI00
S'\x17]t\xd1E\x17\xed?\x17]t\xd1E\x17\xed?A_\xd0\x17\xf4\x05\xed?'
tbaa(lp2188
I452
ag4
(g5
g6
NtRp2189
(dp2190
S'warm_start'
p2191
I00
sS'base_estimator'
p2192
g4
(g11
g6
NtRp2193
(dp2194
S'presort'
p2195
I00
sS'splitter'
p2196
S'random'
p2197
sS'min_impurity_decrease'
p2198
F0
sS'min_impurity_split'
p2199
NsS'min_samples_leaf'
p2200
I1
sS'max_features'
p2201
S'auto'
p2202
sS'random_state'
p2203
NsS'criterion'
p2204
S'gini'
p2205
sS'min_weight_fraction_leaf'
p2206
F0
sS'max_leaf_nodes'
p2207
NsS'min_samples_split'
p2208
I2
sg28
g29
sS'max_depth'
p2209
NsS'class_weight'
p2210
NsbsS'n_jobs'
p2211
Nsg2198
F0
sS'verbose'
p2212
I0
sg2207
NsS'bootstrap'
p2213
I00
sS'oob_score'
p2214
I00
sg2200
I1
sS'n_estimators'
p2215
I100
sg2208
I2
sg2206
F0
sg2204
g2205
sS'estimator_params'
p2216
(S'criterion'
S'max_depth'
S'min_samples_split'
S'min_samples_leaf'
S'min_weight_fraction_leaf'
S'max_features'
S'max_leaf_nodes'
S'min_impurity_decrease'
S'min_impurity_split'
S'random_state'
tp2217
sg2203
Nsg2199
Nsg2201
g2202
sg28
g29
sg2209
Nsg2210
Nsbag39
(g40
(I0
tS'b'
tRp2218
(I1
(I3
tg42
(S'f8'
I0
I1
tRp2219
(I3
S'<'
NNNI-1
I-1
I0
tbI00
S'\xfa\xa4O\xfa\xa4O\xea?\xb3\xa6\xac)k\xca\xea?\xb3\xa6\xac)k\xca\xea?'
tbaa(lp2220
I629
ag4
(g5
g6
NtRp2221
(dp2222
S'warm_start'
p2223
I00
sS'base_estimator'
p2224
g4
(g11
g6
NtRp2225
(dp2226
S'presort'
p2227
I00
sS'splitter'
p2228
S'random'
p2229
sS'min_impurity_decrease'
p2230
F0
sS'min_impurity_split'
p2231
NsS'min_samples_leaf'
p2232
I1
sS'max_features'
p2233
S'auto'
p2234
sS'random_state'
p2235
NsS'criterion'
p2236
S'gini'
p2237
sS'min_weight_fraction_leaf'
p2238
F0
sS'max_leaf_nodes'
p2239
NsS'min_samples_split'
p2240
I2
sg28
g29
sS'max_depth'
p2241
NsS'class_weight'
p2242
NsbsS'n_jobs'
p2243
Nsg2230
F0
sS'verbose'
p2244
I0
sg2239
NsS'bootstrap'
p2245
I00
sS'oob_score'
p2246
I00
sg2232
I1
sS'n_estimators'
p2247
I100
sg2240
I2
sg2238
F0
sg2236
g2237
sS'estimator_params'
p2248
(S'criterion'
S'max_depth'
S'min_samples_split'
S'min_samples_leaf'
S'min_weight_fraction_leaf'
S'max_features'
S'max_leaf_nodes'
S'min_impurity_decrease'
S'min_impurity_split'
S'random_state'
tp2249
sg2235
Nsg2231
Nsg2233
g2234
sg28
g29
sg2241
Nsg2242
Nsbag39
(g40
(I0
tS'b'
tRp2250
(I1
(I3
tg42
(S'f8'
I0
I1
tRp2251
(I3
S'<'
NNNI-1
I-1
I0
tbI00
S'\xb6`\x0b\xb6`\x0b\xe6?eMYS\xd6\x94\xe5?\x06}A_\xd0\x17\xe4?'
tbaa(lp2252
I84
ag4
(g5
g6
NtRp2253
(dp2254
S'warm_start'
p2255
I00
sS'base_estimator'
p2256
g4
(g11
g6
NtRp2257
(dp2258
S'presort'
p2259
I00
sS'splitter'
p2260
S'random'
p2261
sS'min_impurity_decrease'
p2262
F0
sS'min_impurity_split'
p2263
NsS'min_samples_leaf'
p2264
I1
sS'max_features'
p2265
S'auto'
p2266
sS'random_state'
p2267
NsS'criterion'
p2268
S'gini'
p2269
sS'min_weight_fraction_leaf'
p2270
F0
sS'max_leaf_nodes'
p2271
NsS'min_samples_split'
p2272
I2
sg28
g29
sS'max_depth'
p2273
NsS'class_weight'
p2274
NsbsS'n_jobs'
p2275
Nsg2262
F0
sS'verbose'
p2276
I0
sg2271
NsS'bootstrap'
p2277
I00
sS'oob_score'
p2278
I00
sg2264
I1
sS'n_estimators'
p2279
I100
sg2272
I2
sg2270
F0
sg2268
g2269
sS'estimator_params'
p2280
(S'criterion'
S'max_depth'
S'min_samples_split'
S'min_samples_leaf'
S'min_weight_fraction_leaf'
S'max_features'
S'max_leaf_nodes'
S'min_impurity_decrease'
S'min_impurity_split'
S'random_state'
tp2281
sg2267
Nsg2263
Nsg2265
g2266
sg28
g29
sg2273
Nsg2274
Nsbag39
(g40
(I0
tS'b'
tRp2282
(I1
(I3
tg42
(S'f8'
I0
I1
tRp2283
(I3
S'<'
NNNI-1
I-1
I0
tbI00
S'\xa3\x8b.\xba\xe8\xa2\xeb?\xa3\x8b.\xba\xe8\xa2\xeb?\x12w\xc4\x1dqG\xec?'
tbaa(lp2284
I576
ag4
(g5
g6
NtRp2285
(dp2286
S'warm_start'
p2287
I00
sS'base_estimator'
p2288
g4
(g11
g6
NtRp2289
(dp2290
S'presort'
p2291
I00
sS'splitter'
p2292
S'random'
p2293
sS'min_impurity_decrease'
p2294
F0
sS'min_impurity_split'
p2295
NsS'min_samples_leaf'
p2296
I1
sS'max_features'
p2297
S'auto'
p2298
sS'random_state'
p2299
NsS'criterion'
p2300
S'gini'
p2301
sS'min_weight_fraction_leaf'
p2302
F0
sS'max_leaf_nodes'
p2303
NsS'min_samples_split'
p2304
I2
sg28
g29
sS'max_depth'
p2305
NsS'class_weight'
p2306
NsbsS'n_jobs'
p2307
Nsg2294
F0
sS'verbose'
p2308
I0
sg2303
NsS'bootstrap'
p2309
I00
sS'oob_score'
p2310
I00
sg2296
I1
sS'n_estimators'
p2311
I100
sg2304
I2
sg2302
F0
sg2300
g2301
sS'estimator_params'
p2312
(S'criterion'
S'max_depth'
S'min_samples_split'
S'min_samples_leaf'
S'min_weight_fraction_leaf'
S'max_features'
S'max_leaf_nodes'
S'min_impurity_decrease'
S'min_impurity_split'
S'random_state'
tp2313
sg2299
Nsg2295
Nsg2297
g2298
sg28
g29
sg2305
Nsg2306
Nsbag39
(g40
(I0
tS'b'
tRp2314
(I1
(I3
tg42
(S'f8'
I0
I1
tRp2315
(I3
S'<'
NNNI-1
I-1
I0
tbI00
S'\xd1E\x17]t\xd1\xed?\xd1E\x17]t\xd1\xed?\xa1/\xe8\x0b\xfa\x82\xee?'
tbaa(lp2316
I270
ag4
(g5
g6
NtRp2317
(dp2318
S'warm_start'
p2319
I00
sS'base_estimator'
p2320
g4
(g11
g6
NtRp2321
(dp2322
S'presort'
p2323
I00
sS'splitter'
p2324
S'random'
p2325
sS'min_impurity_decrease'
p2326
F0
sS'min_impurity_split'
p2327
NsS'min_samples_leaf'
p2328
I1
sS'max_features'
p2329
S'auto'
p2330
sS'random_state'
p2331
NsS'criterion'
p2332
S'gini'
p2333
sS'min_weight_fraction_leaf'
p2334
F0
sS'max_leaf_nodes'
p2335
NsS'min_samples_split'
p2336
I2
sg28
g29
sS'max_depth'
p2337
NsS'class_weight'
p2338
NsbsS'n_jobs'
p2339
Nsg2326
F0
sS'verbose'
p2340
I0
sg2335
NsS'bootstrap'
p2341
I00
sS'oob_score'
p2342
I00
sg2328
I1
sS'n_estimators'
p2343
I100
sg2336
I2
sg2334
F0
sg2332
g2333
sS'estimator_params'
p2344
(S'criterion'
S'max_depth'
S'min_samples_split'
S'min_samples_leaf'
S'min_weight_fraction_leaf'
S'max_features'
S'max_leaf_nodes'
S'min_impurity_decrease'
S'min_impurity_split'
S'random_state'
tp2345
sg2331
Nsg2327
Nsg2329
g2330
sg28
g29
sg2337
Nsg2338
Nsbag39
(g40
(I0
tS'b'
tRp2346
(I1
(I3
tg42
(S'f8'
I0
I1
tRp2347
(I3
S'<'
NNNI-1
I-1
I0
tbI00
S'\xe9\xa2\x8b.\xba\xe8\xea?\xe9\xa2\x8b.\xba\xe8\xea?\xe2\x8e\xb8#\xee\x88\xeb?'
tbaa(lp2348
I555
ag4
(g5
g6
NtRp2349
(dp2350
S'warm_start'
p2351
I00
sS'base_estimator'
p2352
g4
(g11
g6
NtRp2353
(dp2354
S'presort'
p2355
I00
sS'splitter'
p2356
S'random'
p2357
sS'min_impurity_decrease'
p2358
F0
sS'min_impurity_split'
p2359
NsS'min_samples_leaf'
p2360
I1
sS'max_features'
p2361
S'auto'
p2362
sS'random_state'
p2363
NsS'criterion'
p2364
S'gini'
p2365
sS'min_weight_fraction_leaf'
p2366
F0
sS'max_leaf_nodes'
p2367
NsS'min_samples_split'
p2368
I2
sg28
g29
sS'max_depth'
p2369
NsS'class_weight'
p2370
NsbsS'n_jobs'
p2371
Nsg2358
F0
sS'verbose'
p2372
I0
sg2367
NsS'bootstrap'
p2373
I00
sS'oob_score'
p2374
I00
sg2360
I1
sS'n_estimators'
p2375
I100
sg2368
I2
sg2366
F0
sg2364
g2365
sS'estimator_params'
p2376
(S'criterion'
S'max_depth'
S'min_samples_split'
S'min_samples_leaf'
S'min_weight_fraction_leaf'
S'max_features'
S'max_leaf_nodes'
S'min_impurity_decrease'
S'min_impurity_split'
S'random_state'
tp2377
sg2363
Nsg2359
Nsg2361
g2362
sg28
g29
sg2369
Nsg2370
Nsbag39
(g40
(I0
tS'b'
tRp2378
(I1
(I3
tg42
(S'f8'
I0
I1
tRp2379
(I3
S'<'
NNNI-1
I-1
I0
tbI00
S'\xf5I\x9f\xf4I\x9f\xe4?6eMYS\xd6\xe4?\x06}A_\xd0\x17\xe4?'
tbaa(lp2380
I917
ag4
(g5
g6
NtRp2381
(dp2382
S'warm_start'
p2383
I00
sS'base_estimator'
p2384
g4
(g11
g6
NtRp2385
(dp2386
S'presort'
p2387
I00
sS'splitter'
p2388
S'random'
p2389
sS'min_impurity_decrease'
p2390
F0
sS'min_impurity_split'
p2391
NsS'min_samples_leaf'
p2392
I1
sS'max_features'
p2393
S'auto'
p2394
sS'random_state'
p2395
NsS'criterion'
p2396
S'gini'
p2397
sS'min_weight_fraction_leaf'
p2398
F0
sS'max_leaf_nodes'
p2399
NsS'min_samples_split'
p2400
I2
sg28
g29
sS'max_depth'
p2401
NsS'class_weight'
p2402
NsbsS'n_jobs'
p2403
Nsg2390
F0
sS'verbose'
p2404
I0
sg2399
NsS'bootstrap'
p2405
I00
sS'oob_score'
p2406
I00
sg2392
I1
sS'n_estimators'
p2407
I100
sg2400
I2
sg2398
F0
sg2396
g2397
sS'estimator_params'
p2408
(S'criterion'
S'max_depth'
S'min_samples_split'
S'min_samples_leaf'
S'min_weight_fraction_leaf'
S'max_features'
S'max_leaf_nodes'
S'min_impurity_decrease'
S'min_impurity_split'
S'random_state'
tp2409
sg2395
Nsg2391
Nsg2393
g2394
sg28
g29
sg2401
Nsg2402
Nsbag39
(g40
(I0
tS'b'
tRp2410
(I1
(I3
tg42
(S'f8'
I0
I1
tRp2411
(I3
S'<'
NNNI-1
I-1
I0
tbI00
S'F\x17]t\xd1E\xe7?\x8c.\xba\xe8\xa2\x8b\xe6?\xc4\x1dqG\xdc\x11\xe7?'
tbaaa(lp2412
(lp2413
I18
ag4
(g5
g6
NtRp2414
(dp2415
S'warm_start'
p2416
I00
sS'base_estimator'
p2417
g4
(g11
g6
NtRp2418
(dp2419
S'presort'
p2420
I00
sS'splitter'
p2421
S'random'
p2422
sS'min_impurity_decrease'
p2423
F0
sS'min_impurity_split'
p2424
NsS'min_samples_leaf'
p2425
I1
sS'max_features'
p2426
S'auto'
p2427
sS'random_state'
p2428
NsS'criterion'
p2429
S'gini'
p2430
sS'min_weight_fraction_leaf'
p2431
F0
sS'max_leaf_nodes'
p2432
NsS'min_samples_split'
p2433
I2
sg28
g29
sS'max_depth'
p2434
NsS'class_weight'
p2435
NsbsS'n_jobs'
p2436
Nsg2423
F0
sS'verbose'
p2437
I0
sg2432
NsS'bootstrap'
p2438
I00
sS'oob_score'
p2439
I00
sg2425
I1
sS'n_estimators'
p2440
I100
sg2433
I2
sg2431
F0
sg2429
g2430
sS'estimator_params'
p2441
(S'criterion'
S'max_depth'
S'min_samples_split'
S'min_samples_leaf'
S'min_weight_fraction_leaf'
S'max_features'
S'max_leaf_nodes'
S'min_impurity_decrease'
S'min_impurity_split'
S'random_state'
tp2442
sg2428
Nsg2424
Nsg2426
g2427
sg28
g29
sg2434
Nsg2435
Nsbag39
(g40
(I0
tS'b'
tRp2443
(I1
(I3
tg42
(S'f8'
I0
I1
tRp2444
(I3
S'<'
NNNI-1
I-1
I0
tbI00
S'\xa3\x8b.\xba\xe8\xa2\xeb?\x17]t\xd1E\x17\xed?\x12w\xc4\x1dqG\xec?'
tbaa(lp2445
I951
ag4
(g5
g6
NtRp2446
(dp2447
S'warm_start'
p2448
I00
sS'base_estimator'
p2449
g4
(g11
g6
NtRp2450
(dp2451
S'presort'
p2452
I00
sS'splitter'
p2453
S'random'
p2454
sS'min_impurity_decrease'
p2455
F0
sS'min_impurity_split'
p2456
NsS'min_samples_leaf'
p2457
I1
sS'max_features'
p2458
S'auto'
p2459
sS'random_state'
p2460
NsS'criterion'
p2461
S'gini'
p2462
sS'min_weight_fraction_leaf'
p2463
F0
sS'max_leaf_nodes'
p2464
NsS'min_samples_split'
p2465
I2
sg28
g29
sS'max_depth'
p2466
NsS'class_weight'
p2467
NsbsS'n_jobs'
p2468
Nsg2455
F0
sS'verbose'
p2469
I0
sg2464
NsS'bootstrap'
p2470
I00
sS'oob_score'
p2471
I00
sg2457
I1
sS'n_estimators'
p2472
I100
sg2465
I2
sg2463
F0
sg2461
g2462
sS'estimator_params'
p2473
(S'criterion'
S'max_depth'
S'min_samples_split'
S'min_samples_leaf'
S'min_weight_fraction_leaf'
S'max_features'
S'max_leaf_nodes'
S'min_impurity_decrease'
S'min_impurity_split'
S'random_state'
tp2474
sg2460
Nsg2456
Nsg2458
g2459
sg28
g29
sg2466
Nsg2467
Nsbag39
(g40
(I0
tS'b'
tRp2475
(I1
(I3
tg42
(S'f8'
I0
I1
tRp2476
(I3
S'<'
NNNI-1
I-1
I0
tbI00
S'[\xb0\x05[\xb0\x05\xeb?\x12w\xc4\x1dqG\xec?\x12w\xc4\x1dqG\xec?'
tbaa(lp2477
I777
ag4
(g5
g6
NtRp2478
(dp2479
S'warm_start'
p2480
I00
sS'base_estimator'
p2481
g4
(g11
g6
NtRp2482
(dp2483
S'presort'
p2484
I00
sS'splitter'
p2485
S'random'
p2486
sS'min_impurity_decrease'
p2487
F0
sS'min_impurity_split'
p2488
NsS'min_samples_leaf'
p2489
I1
sS'max_features'
p2490
S'auto'
p2491
sS'random_state'
p2492
NsS'criterion'
p2493
S'gini'
p2494
sS'min_weight_fraction_leaf'
p2495
F0
sS'max_leaf_nodes'
p2496
NsS'min_samples_split'
p2497
I2
sg28
g29
sS'max_depth'
p2498
NsS'class_weight'
p2499
NsbsS'n_jobs'
p2500
Nsg2487
F0
sS'verbose'
p2501
I0
sg2496
NsS'bootstrap'
p2502
I00
sS'oob_score'
p2503
I00
sg2489
I1
sS'n_estimators'
p2504
I100
sg2497
I2
sg2495
F0
sg2493
g2494
sS'estimator_params'
p2505
(S'criterion'
S'max_depth'
S'min_samples_split'
S'min_samples_leaf'
S'min_weight_fraction_leaf'
S'max_features'
S'max_leaf_nodes'
S'min_impurity_decrease'
S'min_impurity_split'
S'random_state'
tp2506
sg2492
Nsg2488
Nsg2490
g2491
sg28
g29
sg2498
Nsg2499
Nsbag39
(g40
(I0
tS'b'
tRp2507
(I1
(I3
tg42
(S'f8'
I0
I1
tRp2508
(I3
S'<'
NNNI-1
I-1
I0
tbI00
S'\xfa\xa4O\xfa\xa4O\xea?\xe2\x8e\xb8#\xee\x88\xeb?\x12w\xc4\x1dqG\xec?'
tbaa(lp2509
I600
ag4
(g5
g6
NtRp2510
(dp2511
S'warm_start'
p2512
I00
sS'base_estimator'
p2513
g4
(g11
g6
NtRp2514
(dp2515
S'presort'
p2516
I00
sS'splitter'
p2517
S'random'
p2518
sS'min_impurity_decrease'
p2519
F0
sS'min_impurity_split'
p2520
NsS'min_samples_leaf'
p2521
I1
sS'max_features'
p2522
S'auto'
p2523
sS'random_state'
p2524
NsS'criterion'
p2525
S'gini'
p2526
sS'min_weight_fraction_leaf'
p2527
F0
sS'max_leaf_nodes'
p2528
NsS'min_samples_split'
p2529
I2
sg28
g29
sS'max_depth'
p2530
NsS'class_weight'
p2531
NsbsS'n_jobs'
p2532
Nsg2519
F0
sS'verbose'
p2533
I0
sg2528
NsS'bootstrap'
p2534
I00
sS'oob_score'
p2535
I00
sg2521
I1
sS'n_estimators'
p2536
I100
sg2529
I2
sg2527
F0
sg2525
g2526
sS'estimator_params'
p2537
(S'criterion'
S'max_depth'
S'min_samples_split'
S'min_samples_leaf'
S'min_weight_fraction_leaf'
S'max_features'
S'max_leaf_nodes'
S'min_impurity_decrease'
S'min_impurity_split'
S'random_state'
tp2538
sg2524
Nsg2520
Nsg2522
g2523
sg28
g29
sg2530
Nsg2531
Nsbag39
(g40
(I0
tS'b'
tRp2539
(I1
(I3
tg42
(S'f8'
I0
I1
tRp2540
(I3
S'<'
NNNI-1
I-1
I0
tbI00
S'\x00\x00\x00\x00\x00\x00\xe8?\xd1E\x17]t\xd1\xe5?6eMYS\xd6\xe4?'
tbaa(lp2541
I515
ag4
(g5
g6
NtRp2542
(dp2543
S'warm_start'
p2544
I00
sS'base_estimator'
p2545
g4
(g11
g6
NtRp2546
(dp2547
S'presort'
p2548
I00
sS'splitter'
p2549
S'random'
p2550
sS'min_impurity_decrease'
p2551
F0
sS'min_impurity_split'
p2552
NsS'min_samples_leaf'
p2553
I1
sS'max_features'
p2554
S'auto'
p2555
sS'random_state'
p2556
NsS'criterion'
p2557
S'gini'
p2558
sS'min_weight_fraction_leaf'
p2559
F0
sS'max_leaf_nodes'
p2560
NsS'min_samples_split'
p2561
I2
sg28
g29
sS'max_depth'
p2562
NsS'class_weight'
p2563
NsbsS'n_jobs'
p2564
Nsg2551
F0
sS'verbose'
p2565
I0
sg2560
NsS'bootstrap'
p2566
I00
sS'oob_score'
p2567
I00
sg2553
I1
sS'n_estimators'
p2568
I100
sg2561
I2
sg2559
F0
sg2557
g2558
sS'estimator_params'
p2569
(S'criterion'
S'max_depth'
S'min_samples_split'
S'min_samples_leaf'
S'min_weight_fraction_leaf'
S'max_features'
S'max_leaf_nodes'
S'min_impurity_decrease'
S'min_impurity_split'
S'random_state'
tp2570
sg2556
Nsg2552
Nsg2554
g2555
sg28
g29
sg2562
Nsg2563
Nsbag39
(g40
(I0
tS'b'
tRp2571
(I1
(I3
tg42
(S'f8'
I0
I1
tRp2572
(I3
S'<'
NNNI-1
I-1
I0
tbI00
S'\xa3\x8b.\xba\xe8\xa2\xe3?\xa3\x8b.\xba\xe8\xa2\xe3?6eMYS\xd6\xe4?'
tbaa(lp2573
I516
ag4
(g5
g6
NtRp2574
(dp2575
S'warm_start'
p2576
I00
sS'base_estimator'
p2577
g4
(g11
g6
NtRp2578
(dp2579
S'presort'
p2580
I00
sS'splitter'
p2581
S'random'
p2582
sS'min_impurity_decrease'
p2583
F0
sS'min_impurity_split'
p2584
NsS'min_samples_leaf'
p2585
I1
sS'max_features'
p2586
S'auto'
p2587
sS'random_state'
p2588
NsS'criterion'
p2589
S'gini'
p2590
sS'min_weight_fraction_leaf'
p2591
F0
sS'max_leaf_nodes'
p2592
NsS'min_samples_split'
p2593
I2
sg28
g29
sS'max_depth'
p2594
NsS'class_weight'
p2595
NsbsS'n_jobs'
p2596
Nsg2583
F0
sS'verbose'
p2597
I0
sg2592
NsS'bootstrap'
p2598
I00
sS'oob_score'
p2599
I00
sg2585
I1
sS'n_estimators'
p2600
I100
sg2593
I2
sg2591
F0
sg2589
g2590
sS'estimator_params'
p2601
(S'criterion'
S'max_depth'
S'min_samples_split'
S'min_samples_leaf'
S'min_weight_fraction_leaf'
S'max_features'
S'max_leaf_nodes'
S'min_impurity_decrease'
S'min_impurity_split'
S'random_state'
tp2602
sg2588
Nsg2584
Nsg2586
g2587
sg28
g29
sg2594
Nsg2595
Nsbag39
(g40
(I0
tS'b'
tRp2603
(I1
(I3
tg42
(S'f8'
I0
I1
tRp2604
(I3
S'<'
NNNI-1
I-1
I0
tbI00
S'\xa3\x8b.\xba\xe8\xa2\xeb?\xe9\xa2\x8b.\xba\xe8\xea?\x12w\xc4\x1dqG\xec?'
tbaa(lp2605
I386
ag4
(g5
g6
NtRp2606
(dp2607
S'warm_start'
p2608
I00
sS'base_estimator'
p2609
g4
(g11
g6
NtRp2610
(dp2611
S'presort'
p2612
I00
sS'splitter'
p2613
S'random'
p2614
sS'min_impurity_decrease'
p2615
F0
sS'min_impurity_split'
p2616
NsS'min_samples_leaf'
p2617
I1
sS'max_features'
p2618
S'auto'
p2619
sS'random_state'
p2620
NsS'criterion'
p2621
S'gini'
p2622
sS'min_weight_fraction_leaf'
p2623
F0
sS'max_leaf_nodes'
p2624
NsS'min_samples_split'
p2625
I2
sg28
g29
sS'max_depth'
p2626
NsS'class_weight'
p2627
NsbsS'n_jobs'
p2628
Nsg2615
F0
sS'verbose'
p2629
I0
sg2624
NsS'bootstrap'
p2630
I00
sS'oob_score'
p2631
I00
sg2617
I1
sS'n_estimators'
p2632
I100
sg2625
I2
sg2623
F0
sg2621
g2622
sS'estimator_params'
p2633
(S'criterion'
S'max_depth'
S'min_samples_split'
S'min_samples_leaf'
S'min_weight_fraction_leaf'
S'max_features'
S'max_leaf_nodes'
S'min_impurity_decrease'
S'min_impurity_split'
S'random_state'
tp2634
sg2620
Nsg2616
Nsg2618
g2619
sg28
g29
sg2626
Nsg2627
Nsbag39
(g40
(I0
tS'b'
tRp2635
(I1
(I3
tg42
(S'f8'
I0
I1
tRp2636
(I3
S'<'
NNNI-1
I-1
I0
tbI00
S'\xa3\x8b.\xba\xe8\xa2\xeb?/\xba\xe8\xa2\x8b.\xea?\xe2\x8e\xb8#\xee\x88\xeb?'
tbaa(lp2637
I517
ag4
(g5
g6
NtRp2638
(dp2639
S'warm_start'
p2640
I00
sS'base_estimator'
p2641
g4
(g11
g6
NtRp2642
(dp2643
S'presort'
p2644
I00
sS'splitter'
p2645
S'random'
p2646
sS'min_impurity_decrease'
p2647
F0
sS'min_impurity_split'
p2648
NsS'min_samples_leaf'
p2649
I1
sS'max_features'
p2650
S'auto'
p2651
sS'random_state'
p2652
NsS'criterion'
p2653
S'gini'
p2654
sS'min_weight_fraction_leaf'
p2655
F0
sS'max_leaf_nodes'
p2656
NsS'min_samples_split'
p2657
I2
sg28
g29
sS'max_depth'
p2658
NsS'class_weight'
p2659
NsbsS'n_jobs'
p2660
Nsg2647
F0
sS'verbose'
p2661
I0
sg2656
NsS'bootstrap'
p2662
I00
sS'oob_score'
p2663
I00
sg2649
I1
sS'n_estimators'
p2664
I100
sg2657
I2
sg2655
F0
sg2653
g2654
sS'estimator_params'
p2665
(S'criterion'
S'max_depth'
S'min_samples_split'
S'min_samples_leaf'
S'min_weight_fraction_leaf'
S'max_features'
S'max_leaf_nodes'
S'min_impurity_decrease'
S'min_impurity_split'
S'random_state'
tp2666
sg2652
Nsg2648
Nsg2650
g2651
sg28
g29
sg2658
Nsg2659
Nsbag39
(g40
(I0
tS'b'
tRp2667
(I1
(I3
tg42
(S'f8'
I0
I1
tRp2668
(I3
S'<'
NNNI-1
I-1
I0
tbI00
S'F\x17]t\xd1E\xe7?\x00\x00\x00\x00\x00\x00\xe8?S\xd6\x945eM\xe9?'
tbaa(lp2669
I673
ag4
(g5
g6
NtRp2670
(dp2671
S'warm_start'
p2672
I00
sS'base_estimator'
p2673
g4
(g11
g6
NtRp2674
(dp2675
S'presort'
p2676
I00
sS'splitter'
p2677
S'random'
p2678
sS'min_impurity_decrease'
p2679
F0
sS'min_impurity_split'
p2680
NsS'min_samples_leaf'
p2681
I1
sS'max_features'
p2682
S'auto'
p2683
sS'random_state'
p2684
NsS'criterion'
p2685
S'gini'
p2686
sS'min_weight_fraction_leaf'
p2687
F0
sS'max_leaf_nodes'
p2688
NsS'min_samples_split'
p2689
I2
sg28
g29
sS'max_depth'
p2690
NsS'class_weight'
p2691
NsbsS'n_jobs'
p2692
Nsg2679
F0
sS'verbose'
p2693
I0
sg2688
NsS'bootstrap'
p2694
I00
sS'oob_score'
p2695
I00
sg2681
I1
sS'n_estimators'
p2696
I100
sg2689
I2
sg2687
F0
sg2685
g2686
sS'estimator_params'
p2697
(S'criterion'
S'max_depth'
S'min_samples_split'
S'min_samples_leaf'
S'min_weight_fraction_leaf'
S'max_features'
S'max_leaf_nodes'
S'min_impurity_decrease'
S'min_impurity_split'
S'random_state'
tp2698
sg2684
Nsg2680
Nsg2682
g2683
sg28
g29
sg2690
Nsg2691
Nsbag39
(g40
(I0
tS'b'
tRp2699
(I1
(I3
tg42
(S'f8'
I0
I1
tRp2700
(I3
S'<'
NNNI-1
I-1
I0
tbI00
S'UUUUUU\xe5?6eMYS\xd6\xe4?\x955eMYS\xe6?'
tbaa(lp2701
I529
ag4
(g5
g6
NtRp2702
(dp2703
S'warm_start'
p2704
I00
sS'base_estimator'
p2705
g4
(g11
g6
NtRp2706
(dp2707
S'presort'
p2708
I00
sS'splitter'
p2709
S'random'
p2710
sS'min_impurity_decrease'
p2711
F0
sS'min_impurity_split'
p2712
NsS'min_samples_leaf'
p2713
I1
sS'max_features'
p2714
S'auto'
p2715
sS'random_state'
p2716
NsS'criterion'
p2717
S'gini'
p2718
sS'min_weight_fraction_leaf'
p2719
F0
sS'max_leaf_nodes'
p2720
NsS'min_samples_split'
p2721
I2
sg28
g29
sS'max_depth'
p2722
NsS'class_weight'
p2723
NsbsS'n_jobs'
p2724
Nsg2711
F0
sS'verbose'
p2725
I0
sg2720
NsS'bootstrap'
p2726
I00
sS'oob_score'
p2727
I00
sg2713
I1
sS'n_estimators'
p2728
I100
sg2721
I2
sg2719
F0
sg2717
g2718
sS'estimator_params'
p2729
(S'criterion'
S'max_depth'
S'min_samples_split'
S'min_samples_leaf'
S'min_weight_fraction_leaf'
S'max_features'
S'max_leaf_nodes'
S'min_impurity_decrease'
S'min_impurity_split'
S'random_state'
tp2730
sg2716
Nsg2712
Nsg2714
g2715
sg28
g29
sg2722
Nsg2723
Nsbag39
(g40
(I0
tS'b'
tRp2731
(I1
(I3
tg42
(S'f8'
I0
I1
tRp2732
(I3
S'<'
NNNI-1
I-1
I0
tbI00
S'\x8c.\xba\xe8\xa2\x8b\xe6?]t\xd1E\x17]\xe4?\xd6\x945eMY\xe3?'
tbaa(lp2733
I160
ag4
(g5
g6
NtRp2734
(dp2735
S'warm_start'
p2736
I00
sS'base_estimator'
p2737
g4
(g11
g6
NtRp2738
(dp2739
S'presort'
p2740
I00
sS'splitter'
p2741
S'random'
p2742
sS'min_impurity_decrease'
p2743
F0
sS'min_impurity_split'
p2744
NsS'min_samples_leaf'
p2745
I1
sS'max_features'
p2746
S'auto'
p2747
sS'random_state'
p2748
NsS'criterion'
p2749
S'gini'
p2750
sS'min_weight_fraction_leaf'
p2751
F0
sS'max_leaf_nodes'
p2752
NsS'min_samples_split'
p2753
I2
sg28
g29
sS'max_depth'
p2754
NsS'class_weight'
p2755
NsbsS'n_jobs'
p2756
Nsg2743
F0
sS'verbose'
p2757
I0
sg2752
NsS'bootstrap'
p2758
I00
sS'oob_score'
p2759
I00
sg2745
I1
sS'n_estimators'
p2760
I100
sg2753
I2
sg2751
F0
sg2749
g2750
sS'estimator_params'
p2761
(S'criterion'
S'max_depth'
S'min_samples_split'
S'min_samples_leaf'
S'min_weight_fraction_leaf'
S'max_features'
S'max_leaf_nodes'
S'min_impurity_decrease'
S'min_impurity_split'
S'random_state'
tp2762
sg2748
Nsg2744
Nsg2746
g2747
sg28
g29
sg2754
Nsg2755
Nsbag39
(g40
(I0
tS'b'
tRp2763
(I1
(I3
tg42
(S'f8'
I0
I1
tRp2764
(I3
S'<'
NNNI-1
I-1
I0
tbI00
S'\x00\x00\x00\x00\x00\x00\xe8?]t\xd1E\x17]\xe4?\xa7\xac)k\xca\x9a\xe2?'
tbaa(lp2765
I633
ag4
(g5
g6
NtRp2766
(dp2767
S'warm_start'
p2768
I00
sS'base_estimator'
p2769
g4
(g11
g6
NtRp2770
(dp2771
S'presort'
p2772
I00
sS'splitter'
p2773
S'random'
p2774
sS'min_impurity_decrease'
p2775
F0
sS'min_impurity_split'
p2776
NsS'min_samples_leaf'
p2777
I1
sS'max_features'
p2778
S'auto'
p2779
sS'random_state'
p2780
NsS'criterion'
p2781
S'gini'
p2782
sS'min_weight_fraction_leaf'
p2783
F0
sS'max_leaf_nodes'
p2784
NsS'min_samples_split'
p2785
I2
sg28
g29
sS'max_depth'
p2786
NsS'class_weight'
p2787
NsbsS'n_jobs'
p2788
Nsg2775
F0
sS'verbose'
p2789
I0
sg2784
NsS'bootstrap'
p2790
I00
sS'oob_score'
p2791
I00
sg2777
I1
sS'n_estimators'
p2792
I100
sg2785
I2
sg2783
F0
sg2781
g2782
sS'estimator_params'
p2793
(S'criterion'
S'max_depth'
S'min_samples_split'
S'min_samples_leaf'
S'min_weight_fraction_leaf'
S'max_features'
S'max_leaf_nodes'
S'min_impurity_decrease'
S'min_impurity_split'
S'random_state'
tp2794
sg2780
Nsg2776
Nsg2778
g2779
sg28
g29
sg2786
Nsg2787
Nsbag39
(g40
(I0
tS'b'
tRp2795
(I1
(I3
tg42
(S'f8'
I0
I1
tRp2796
(I3
S'<'
NNNI-1
I-1
I0
tbI00
S']t\xd1E\x17]\xec?\xa3\x8b.\xba\xe8\xa2\xeb?\x12w\xc4\x1dqG\xec?'
tbaa(lp2797
I341
ag4
(g5
g6
NtRp2798
(dp2799
S'warm_start'
p2800
I00
sS'base_estimator'
p2801
g4
(g11
g6
NtRp2802
(dp2803
S'presort'
p2804
I00
sS'splitter'
p2805
S'random'
p2806
sS'min_impurity_decrease'
p2807
F0
sS'min_impurity_split'
p2808
NsS'min_samples_leaf'
p2809
I1
sS'max_features'
p2810
S'auto'
p2811
sS'random_state'
p2812
NsS'criterion'
p2813
S'gini'
p2814
sS'min_weight_fraction_leaf'
p2815
F0
sS'max_leaf_nodes'
p2816
NsS'min_samples_split'
p2817
I2
sg28
g29
sS'max_depth'
p2818
NsS'class_weight'
p2819
NsbsS'n_jobs'
p2820
Nsg2807
F0
sS'verbose'
p2821
I0
sg2816
NsS'bootstrap'
p2822
I00
sS'oob_score'
p2823
I00
sg2809
I1
sS'n_estimators'
p2824
I100
sg2817
I2
sg2815
F0
sg2813
g2814
sS'estimator_params'
p2825
(S'criterion'
S'max_depth'
S'min_samples_split'
S'min_samples_leaf'
S'min_weight_fraction_leaf'
S'max_features'
S'max_leaf_nodes'
S'min_impurity_decrease'
S'min_impurity_split'
S'random_state'
tp2826
sg2812
Nsg2808
Nsg2810
g2811
sg28
g29
sg2818
Nsg2819
Nsbag39
(g40
(I0
tS'b'
tRp2827
(I1
(I3
tg42
(S'f8'
I0
I1
tRp2828
(I3
S'<'
NNNI-1
I-1
I0
tbI00
S'F\x17]t\xd1E\xe7?\x8c.\xba\xe8\xa2\x8b\xe6?\x06}A_\xd0\x17\xe4?'
tbaa(lp2829
I331
ag4
(g5
g6
NtRp2830
(dp2831
S'warm_start'
p2832
I00
sS'base_estimator'
p2833
g4
(g11
g6
NtRp2834
(dp2835
S'presort'
p2836
I00
sS'splitter'
p2837
S'random'
p2838
sS'min_impurity_decrease'
p2839
F0
sS'min_impurity_split'
p2840
NsS'min_samples_leaf'
p2841
I1
sS'max_features'
p2842
S'auto'
p2843
sS'random_state'
p2844
NsS'criterion'
p2845
S'gini'
p2846
sS'min_weight_fraction_leaf'
p2847
F0
sS'max_leaf_nodes'
p2848
NsS'min_samples_split'
p2849
I2
sg28
g29
sS'max_depth'
p2850
NsS'class_weight'
p2851
NsbsS'n_jobs'
p2852
Nsg2839
F0
sS'verbose'
p2853
I0
sg2848
NsS'bootstrap'
p2854
I00
sS'oob_score'
p2855
I00
sg2841
I1
sS'n_estimators'
p2856
I100
sg2849
I2
sg2847
F0
sg2845
g2846
sS'estimator_params'
p2857
(S'criterion'
S'max_depth'
S'min_samples_split'
S'min_samples_leaf'
S'min_weight_fraction_leaf'
S'max_features'
S'max_leaf_nodes'
S'min_impurity_decrease'
S'min_impurity_split'
S'random_state'
tp2858
sg2844
Nsg2840
Nsg2842
g2843
sg28
g29
sg2850
Nsg2851
Nsbag39
(g40
(I0
tS'b'
tRp2859
(I1
(I3
tg42
(S'f8'
I0
I1
tRp2860
(I3
S'<'
NNNI-1
I-1
I0
tbI00
S't\xd1E\x17]t\xe1?t\xd1E\x17]t\xe1?\xa7\xac)k\xca\x9a\xe2?'
tbaa(lp2861
I433
ag4
(g5
g6
NtRp2862
(dp2863
S'warm_start'
p2864
I00
sS'base_estimator'
p2865
g4
(g11
g6
NtRp2866
(dp2867
S'presort'
p2868
I00
sS'splitter'
p2869
S'random'
p2870
sS'min_impurity_decrease'
p2871
F0
sS'min_impurity_split'
p2872
NsS'min_samples_leaf'
p2873
I1
sS'max_features'
p2874
S'auto'
p2875
sS'random_state'
p2876
NsS'criterion'
p2877
S'gini'
p2878
sS'min_weight_fraction_leaf'
p2879
F0
sS'max_leaf_nodes'
p2880
NsS'min_samples_split'
p2881
I2
sg28
g29
sS'max_depth'
p2882
NsS'class_weight'
p2883
NsbsS'n_jobs'
p2884
Nsg2871
F0
sS'verbose'
p2885
I0
sg2880
NsS'bootstrap'
p2886
I00
sS'oob_score'
p2887
I00
sg2873
I1
sS'n_estimators'
p2888
I100
sg2881
I2
sg2879
F0
sg2877
g2878
sS'estimator_params'
p2889
(S'criterion'
S'max_depth'
S'min_samples_split'
S'min_samples_leaf'
S'min_weight_fraction_leaf'
S'max_features'
S'max_leaf_nodes'
S'min_impurity_decrease'
S'min_impurity_split'
S'random_state'
tp2890
sg2876
Nsg2872
Nsg2874
g2875
sg28
g29
sg2882
Nsg2883
Nsbag39
(g40
(I0
tS'b'
tRp2891
(I1
(I3
tg42
(S'f8'
I0
I1
tRp2892
(I3
S'<'
NNNI-1
I-1
I0
tbI00
S'\x17]t\xd1E\x17\xe5?\x8c.\xba\xe8\xa2\x8b\xe6?\x955eMYS\xe6?'
tbaa(lp2893
I1026
ag4
(g5
g6
NtRp2894
(dp2895
S'warm_start'
p2896
I00
sS'base_estimator'
p2897
g4
(g11
g6
NtRp2898
(dp2899
S'presort'
p2900
I00
sS'splitter'
p2901
S'random'
p2902
sS'min_impurity_decrease'
p2903
F0
sS'min_impurity_split'
p2904
NsS'min_samples_leaf'
p2905
I1
sS'max_features'
p2906
S'auto'
p2907
sS'random_state'
p2908
NsS'criterion'
p2909
S'gini'
p2910
sS'min_weight_fraction_leaf'
p2911
F0
sS'max_leaf_nodes'
p2912
NsS'min_samples_split'
p2913
I2
sg28
g29
sS'max_depth'
p2914
NsS'class_weight'
p2915
NsbsS'n_jobs'
p2916
Nsg2903
F0
sS'verbose'
p2917
I0
sg2912
NsS'bootstrap'
p2918
I00
sS'oob_score'
p2919
I00
sg2905
I1
sS'n_estimators'
p2920
I100
sg2913
I2
sg2911
F0
sg2909
g2910
sS'estimator_params'
p2921
(S'criterion'
S'max_depth'
S'min_samples_split'
S'min_samples_leaf'
S'min_weight_fraction_leaf'
S'max_features'
S'max_leaf_nodes'
S'min_impurity_decrease'
S'min_impurity_split'
S'random_state'
tp2922
sg2908
Nsg2904
Nsg2906
g2907
sg28
g29
sg2914
Nsg2915
Nsbag39
(g40
(I0
tS'b'
tRp2923
(I1
(I3
tg42
(S'f8'
I0
I1
tRp2924
(I3
S'<'
NNNI-1
I-1
I0
tbI00
S'\x17]t\xd1E\x17\xe5?\xd1E\x17]t\xd1\xe5?6eMYS\xd6\xe4?'
tbaa(lp2925
I912
ag4
(g5
g6
NtRp2926
(dp2927
S'warm_start'
p2928
I00
sS'base_estimator'
p2929
g4
(g11
g6
NtRp2930
(dp2931
S'presort'
p2932
I00
sS'splitter'
p2933
S'random'
p2934
sS'min_impurity_decrease'
p2935
F0
sS'min_impurity_split'
p2936
NsS'min_samples_leaf'
p2937
I1
sS'max_features'
p2938
S'auto'
p2939
sS'random_state'
p2940
NsS'criterion'
p2941
S'gini'
p2942
sS'min_weight_fraction_leaf'
p2943
F0
sS'max_leaf_nodes'
p2944
NsS'min_samples_split'
p2945
I2
sg28
g29
sS'max_depth'
p2946
NsS'class_weight'
p2947
NsbsS'n_jobs'
p2948
Nsg2935
F0
sS'verbose'
p2949
I0
sg2944
NsS'bootstrap'
p2950
I00
sS'oob_score'
p2951
I00
sg2937
I1
sS'n_estimators'
p2952
I100
sg2945
I2
sg2943
F0
sg2941
g2942
sS'estimator_params'
p2953
(S'criterion'
S'max_depth'
S'min_samples_split'
S'min_samples_leaf'
S'min_weight_fraction_leaf'
S'max_features'
S'max_leaf_nodes'
S'min_impurity_decrease'
S'min_impurity_split'
S'random_state'
tp2954
sg2940
Nsg2936
Nsg2938
g2939
sg28
g29
sg2946
Nsg2947
Nsbag39
(g40
(I0
tS'b'
tRp2955
(I1
(I3
tg42
(S'f8'
I0
I1
tRp2956
(I3
S'<'
NNNI-1
I-1
I0
tbI00
S'UUUUUU\xe5?\xc4\x1dqG\xdc\x11\xe7?\xa7\xac)k\xca\x9a\xe2?'
tbaa(lp2957
I296
ag4
(g5
g6
NtRp2958
(dp2959
S'warm_start'
p2960
I00
sS'base_estimator'
p2961
g4
(g11
g6
NtRp2962
(dp2963
S'presort'
p2964
I00
sS'splitter'
p2965
S'random'
p2966
sS'min_impurity_decrease'
p2967
F0
sS'min_impurity_split'
p2968
NsS'min_samples_leaf'
p2969
I1
sS'max_features'
p2970
S'auto'
p2971
sS'random_state'
p2972
NsS'criterion'
p2973
S'gini'
p2974
sS'min_weight_fraction_leaf'
p2975
F0
sS'max_leaf_nodes'
p2976
NsS'min_samples_split'
p2977
I2
sg28
g29
sS'max_depth'
p2978
NsS'class_weight'
p2979
NsbsS'n_jobs'
p2980
Nsg2967
F0
sS'verbose'
p2981
I0
sg2976
NsS'bootstrap'
p2982
I00
sS'oob_score'
p2983
I00
sg2969
I1
sS'n_estimators'
p2984
I100
sg2977
I2
sg2975
F0
sg2973
g2974
sS'estimator_params'
p2985
(S'criterion'
S'max_depth'
S'min_samples_split'
S'min_samples_leaf'
S'min_weight_fraction_leaf'
S'max_features'
S'max_leaf_nodes'
S'min_impurity_decrease'
S'min_impurity_split'
S'random_state'
tp2986
sg2972
Nsg2968
Nsg2970
g2971
sg28
g29
sg2978
Nsg2979
Nsbag39
(g40
(I0
tS'b'
tRp2987
(I1
(I3
tg42
(S'f8'
I0
I1
tRp2988
(I3
S'<'
NNNI-1
I-1
I0
tbI00
S'\xba\xe8\xa2\x8b.\xba\xe8?\xba\xe8\xa2\x8b.\xba\xe8?\xc4\x1dqG\xdc\x11\xe7?'
tbaa(lp2989
I26
ag4
(g5
g6
NtRp2990
(dp2991
S'warm_start'
p2992
I00
sS'base_estimator'
p2993
g4
(g11
g6
NtRp2994
(dp2995
S'presort'
p2996
I00
sS'splitter'
p2997
S'random'
p2998
sS'min_impurity_decrease'
p2999
F0
sS'min_impurity_split'
p3000
NsS'min_samples_leaf'
p3001
I1
sS'max_features'
p3002
S'auto'
p3003
sS'random_state'
p3004
NsS'criterion'
p3005
S'gini'
p3006
sS'min_weight_fraction_leaf'
p3007
F0
sS'max_leaf_nodes'
p3008
NsS'min_samples_split'
p3009
I2
sg28
g29
sS'max_depth'
p3010
NsS'class_weight'
p3011
NsbsS'n_jobs'
p3012
Nsg2999
F0
sS'verbose'
p3013
I0
sg3008
NsS'bootstrap'
p3014
I00
sS'oob_score'
p3015
I00
sg3001
I1
sS'n_estimators'
p3016
I100
sg3009
I2
sg3007
F0
sg3005
g3006
sS'estimator_params'
p3017
(S'criterion'
S'max_depth'
S'min_samples_split'
S'min_samples_leaf'
S'min_weight_fraction_leaf'
S'max_features'
S'max_leaf_nodes'
S'min_impurity_decrease'
S'min_impurity_split'
S'random_state'
tp3018
sg3004
Nsg3000
Nsg3002
g3003
sg28
g29
sg3010
Nsg3011
Nsbag39
(g40
(I0
tS'b'
tRp3019
(I1
(I3
tg42
(S'f8'
I0
I1
tRp3020
(I3
S'<'
NNNI-1
I-1
I0
tbI00
S'\xa3\x8b.\xba\xe8\xa2\xeb?\xe9\xa2\x8b.\xba\xe8\xea?\xe2\x8e\xb8#\xee\x88\xeb?'
tbaa(lp3021
I214
ag4
(g5
g6
NtRp3022
(dp3023
S'warm_start'
p3024
I00
sS'base_estimator'
p3025
g4
(g11
g6
NtRp3026
(dp3027
S'presort'
p3028
I00
sS'splitter'
p3029
S'random'
p3030
sS'min_impurity_decrease'
p3031
F0
sS'min_impurity_split'
p3032
NsS'min_samples_leaf'
p3033
I1
sS'max_features'
p3034
S'auto'
p3035
sS'random_state'
p3036
NsS'criterion'
p3037
S'gini'
p3038
sS'min_weight_fraction_leaf'
p3039
F0
sS'max_leaf_nodes'
p3040
NsS'min_samples_split'
p3041
I2
sg28
g29
sS'max_depth'
p3042
NsS'class_weight'
p3043
NsbsS'n_jobs'
p3044
Nsg3031
F0
sS'verbose'
p3045
I0
sg3040
NsS'bootstrap'
p3046
I00
sS'oob_score'
p3047
I00
sg3033
I1
sS'n_estimators'
p3048
I100
sg3041
I2
sg3039
F0
sg3037
g3038
sS'estimator_params'
p3049
(S'criterion'
S'max_depth'
S'min_samples_split'
S'min_samples_leaf'
S'min_weight_fraction_leaf'
S'max_features'
S'max_leaf_nodes'
S'min_impurity_decrease'
S'min_impurity_split'
S'random_state'
tp3050
sg3036
Nsg3032
Nsg3034
g3035
sg28
g29
sg3042
Nsg3043
Nsbag39
(g40
(I0
tS'b'
tRp3051
(I1
(I3
tg42
(S'f8'
I0
I1
tRp3052
(I3
S'<'
NNNI-1
I-1
I0
tbI00
S'/\xba\xe8\xa2\x8b.\xea?\xa3\x8b.\xba\xe8\xa2\xeb?\xe2\x8e\xb8#\xee\x88\xeb?'
tbaa(lp3053
I254
ag4
(g5
g6
NtRp3054
(dp3055
S'warm_start'
p3056
I00
sS'base_estimator'
p3057
g4
(g11
g6
NtRp3058
(dp3059
S'presort'
p3060
I00
sS'splitter'
p3061
S'random'
p3062
sS'min_impurity_decrease'
p3063
F0
sS'min_impurity_split'
p3064
NsS'min_samples_leaf'
p3065
I1
sS'max_features'
p3066
S'auto'
p3067
sS'random_state'
p3068
NsS'criterion'
p3069
S'gini'
p3070
sS'min_weight_fraction_leaf'
p3071
F0
sS'max_leaf_nodes'
p3072
NsS'min_samples_split'
p3073
I2
sg28
g29
sS'max_depth'
p3074
NsS'class_weight'
p3075
NsbsS'n_jobs'
p3076
Nsg3063
F0
sS'verbose'
p3077
I0
sg3072
NsS'bootstrap'
p3078
I00
sS'oob_score'
p3079
I00
sg3065
I1
sS'n_estimators'
p3080
I100
sg3073
I2
sg3071
F0
sg3069
g3070
sS'estimator_params'
p3081
(S'criterion'
S'max_depth'
S'min_samples_split'
S'min_samples_leaf'
S'min_weight_fraction_leaf'
S'max_features'
S'max_leaf_nodes'
S'min_impurity_decrease'
S'min_impurity_split'
S'random_state'
tp3082
sg3068
Nsg3064
Nsg3066
g3067
sg28
g29
sg3074
Nsg3075
Nsbag39
(g40
(I0
tS'b'
tRp3083
(I1
(I3
tg42
(S'f8'
I0
I1
tRp3084
(I3
S'<'
NNNI-1
I-1
I0
tbI00
S'\xe9\xa2\x8b.\xba\xe8\xea?/\xba\xe8\xa2\x8b.\xea?\x83\xbe\xa0/\xe8\x0b\xea?'
tbaa(lp3085
I113
ag4
(g5
g6
NtRp3086
(dp3087
S'warm_start'
p3088
I00
sS'base_estimator'
p3089
g4
(g11
g6
NtRp3090
(dp3091
S'presort'
p3092
I00
sS'splitter'
p3093
S'random'
p3094
sS'min_impurity_decrease'
p3095
F0
sS'min_impurity_split'
p3096
NsS'min_samples_leaf'
p3097
I1
sS'max_features'
p3098
S'auto'
p3099
sS'random_state'
p3100
NsS'criterion'
p3101
S'gini'
p3102
sS'min_weight_fraction_leaf'
p3103
F0
sS'max_leaf_nodes'
p3104
NsS'min_samples_split'
p3105
I2
sg28
g29
sS'max_depth'
p3106
NsS'class_weight'
p3107
NsbsS'n_jobs'
p3108
Nsg3095
F0
sS'verbose'
p3109
I0
sg3104
NsS'bootstrap'
p3110
I00
sS'oob_score'
p3111
I00
sg3097
I1
sS'n_estimators'
p3112
I100
sg3105
I2
sg3103
F0
sg3101
g3102
sS'estimator_params'
p3113
(S'criterion'
S'max_depth'
S'min_samples_split'
S'min_samples_leaf'
S'min_weight_fraction_leaf'
S'max_features'
S'max_leaf_nodes'
S'min_impurity_decrease'
S'min_impurity_split'
S'random_state'
tp3114
sg3100
Nsg3096
Nsg3098
g3099
sg28
g29
sg3106
Nsg3107
Nsbag39
(g40
(I0
tS'b'
tRp3115
(I1
(I3
tg42
(S'f8'
I0
I1
tRp3116
(I3
S'<'
NNNI-1
I-1
I0
tbI00
S'\x9a\x99\x99\x99\x99\x99\xe9?$\xee\x88;\xe2\x8e\xe8?\x83\xbe\xa0/\xe8\x0b\xea?'
tbaa(lp3117
I753
ag4
(g5
g6
NtRp3118
(dp3119
S'warm_start'
p3120
I00
sS'base_estimator'
p3121
g4
(g11
g6
NtRp3122
(dp3123
S'presort'
p3124
I00
sS'splitter'
p3125
S'random'
p3126
sS'min_impurity_decrease'
p3127
F0
sS'min_impurity_split'
p3128
NsS'min_samples_leaf'
p3129
I1
sS'max_features'
p3130
S'auto'
p3131
sS'random_state'
p3132
NsS'criterion'
p3133
S'gini'
p3134
sS'min_weight_fraction_leaf'
p3135
F0
sS'max_leaf_nodes'
p3136
NsS'min_samples_split'
p3137
I2
sg28
g29
sS'max_depth'
p3138
NsS'class_weight'
p3139
NsbsS'n_jobs'
p3140
Nsg3127
F0
sS'verbose'
p3141
I0
sg3136
NsS'bootstrap'
p3142
I00
sS'oob_score'
p3143
I00
sg3129
I1
sS'n_estimators'
p3144
I100
sg3137
I2
sg3135
F0
sg3133
g3134
sS'estimator_params'
p3145
(S'criterion'
S'max_depth'
S'min_samples_split'
S'min_samples_leaf'
S'min_weight_fraction_leaf'
S'max_features'
S'max_leaf_nodes'
S'min_impurity_decrease'
S'min_impurity_split'
S'random_state'
tp3146
sg3132
Nsg3128
Nsg3130
g3131
sg28
g29
sg3138
Nsg3139
Nsbag39
(g40
(I0
tS'b'
tRp3147
(I1
(I3
tg42
(S'f8'
I0
I1
tRp3148
(I3
S'<'
NNNI-1
I-1
I0
tbI00
S'\xba\xe8\xa2\x8b.\xba\xe0?\xa3\x8b.\xba\xe8\xa2\xe3?\x06}A_\xd0\x17\xe4?'
tbaa(lp3149
I422
ag4
(g5
g6
NtRp3150
(dp3151
S'warm_start'
p3152
I00
sS'base_estimator'
p3153
g4
(g11
g6
NtRp3154
(dp3155
S'presort'
p3156
I00
sS'splitter'
p3157
S'random'
p3158
sS'min_impurity_decrease'
p3159
F0
sS'min_impurity_split'
p3160
NsS'min_samples_leaf'
p3161
I1
sS'max_features'
p3162
S'auto'
p3163
sS'random_state'
p3164
NsS'criterion'
p3165
S'gini'
p3166
sS'min_weight_fraction_leaf'
p3167
F0
sS'max_leaf_nodes'
p3168
NsS'min_samples_split'
p3169
I2
sg28
g29
sS'max_depth'
p3170
NsS'class_weight'
p3171
NsbsS'n_jobs'
p3172
Nsg3159
F0
sS'verbose'
p3173
I0
sg3168
NsS'bootstrap'
p3174
I00
sS'oob_score'
p3175
I00
sg3161
I1
sS'n_estimators'
p3176
I100
sg3169
I2
sg3167
F0
sg3165
g3166
sS'estimator_params'
p3177
(S'criterion'
S'max_depth'
S'min_samples_split'
S'min_samples_leaf'
S'min_weight_fraction_leaf'
S'max_features'
S'max_leaf_nodes'
S'min_impurity_decrease'
S'min_impurity_split'
S'random_state'
tp3178
sg3164
Nsg3160
Nsg3162
g3163
sg28
g29
sg3170
Nsg3171
Nsbag39
(g40
(I0
tS'b'
tRp3179
(I1
(I3
tg42
(S'f8'
I0
I1
tRp3180
(I3
S'<'
NNNI-1
I-1
I0
tbI00
S'333333\xe3?\xa7\xac)k\xca\x9a\xe2?\x06}A_\xd0\x17\xe4?'
tbaa(lp3181
I944
ag4
(g5
g6
NtRp3182
(dp3183
S'warm_start'
p3184
I00
sS'base_estimator'
p3185
g4
(g11
g6
NtRp3186
(dp3187
S'presort'
p3188
I00
sS'splitter'
p3189
S'random'
p3190
sS'min_impurity_decrease'
p3191
F0
sS'min_impurity_split'
p3192
NsS'min_samples_leaf'
p3193
I1
sS'max_features'
p3194
S'auto'
p3195
sS'random_state'
p3196
NsS'criterion'
p3197
S'gini'
p3198
sS'min_weight_fraction_leaf'
p3199
F0
sS'max_leaf_nodes'
p3200
NsS'min_samples_split'
p3201
I2
sg28
g29
sS'max_depth'
p3202
NsS'class_weight'
p3203
NsbsS'n_jobs'
p3204
Nsg3191
F0
sS'verbose'
p3205
I0
sg3200
NsS'bootstrap'
p3206
I00
sS'oob_score'
p3207
I00
sg3193
I1
sS'n_estimators'
p3208
I100
sg3201
I2
sg3199
F0
sg3197
g3198
sS'estimator_params'
p3209
(S'criterion'
S'max_depth'
S'min_samples_split'
S'min_samples_leaf'
S'min_weight_fraction_leaf'
S'max_features'
S'max_leaf_nodes'
S'min_impurity_decrease'
S'min_impurity_split'
S'random_state'
tp3210
sg3196
Nsg3192
Nsg3194
g3195
sg28
g29
sg3202
Nsg3203
Nsbag39
(g40
(I0
tS'b'
tRp3211
(I1
(I3
tg42
(S'f8'
I0
I1
tRp3212
(I3
S'<'
NNNI-1
I-1
I0
tbI00
S"\xd2'}\xd2'}\xe2?eMYS\xd6\x94\xe5?\xa7\xac)k\xca\x9a\xe2?"
tbaa(lp3213
I671
ag4
(g5
g6
NtRp3214
(dp3215
S'warm_start'
p3216
I00
sS'base_estimator'
p3217
g4
(g11
g6
NtRp3218
(dp3219
S'presort'
p3220
I00
sS'splitter'
p3221
S'random'
p3222
sS'min_impurity_decrease'
p3223
F0
sS'min_impurity_split'
p3224
NsS'min_samples_leaf'
p3225
I1
sS'max_features'
p3226
S'auto'
p3227
sS'random_state'
p3228
NsS'criterion'
p3229
S'gini'
p3230
sS'min_weight_fraction_leaf'
p3231
F0
sS'max_leaf_nodes'
p3232
NsS'min_samples_split'
p3233
I2
sg28
g29
sS'max_depth'
p3234
NsS'class_weight'
p3235
NsbsS'n_jobs'
p3236
Nsg3223
F0
sS'verbose'
p3237
I0
sg3232
NsS'bootstrap'
p3238
I00
sS'oob_score'
p3239
I00
sg3225
I1
sS'n_estimators'
p3240
I100
sg3233
I2
sg3231
F0
sg3229
g3230
sS'estimator_params'
p3241
(S'criterion'
S'max_depth'
S'min_samples_split'
S'min_samples_leaf'
S'min_weight_fraction_leaf'
S'max_features'
S'max_leaf_nodes'
S'min_impurity_decrease'
S'min_impurity_split'
S'random_state'
tp3242
sg3228
Nsg3224
Nsg3226
g3227
sg28
g29
sg3234
Nsg3235
Nsbag39
(g40
(I0
tS'b'
tRp3243
(I1
(I3
tg42
(S'f8'
I0
I1
tRp3244
(I3
S'<'
NNNI-1
I-1
I0
tbI00
S'\xa3\x8b.\xba\xe8\xa2\xeb?\xa3\x8b.\xba\xe8\xa2\xeb?\xe2\x8e\xb8#\xee\x88\xeb?'
tbaa(lp3245
I235
ag4
(g5
g6
NtRp3246
(dp3247
S'warm_start'
p3248
I00
sS'base_estimator'
p3249
g4
(g11
g6
NtRp3250
(dp3251
S'presort'
p3252
I00
sS'splitter'
p3253
S'random'
p3254
sS'min_impurity_decrease'
p3255
F0
sS'min_impurity_split'
p3256
NsS'min_samples_leaf'
p3257
I1
sS'max_features'
p3258
S'auto'
p3259
sS'random_state'
p3260
NsS'criterion'
p3261
S'gini'
p3262
sS'min_weight_fraction_leaf'
p3263
F0
sS'max_leaf_nodes'
p3264
NsS'min_samples_split'
p3265
I2
sg28
g29
sS'max_depth'
p3266
NsS'class_weight'
p3267
NsbsS'n_jobs'
p3268
Nsg3255
F0
sS'verbose'
p3269
I0
sg3264
NsS'bootstrap'
p3270
I00
sS'oob_score'
p3271
I00
sg3257
I1
sS'n_estimators'
p3272
I100
sg3265
I2
sg3263
F0
sg3261
g3262
sS'estimator_params'
p3273
(S'criterion'
S'max_depth'
S'min_samples_split'
S'min_samples_leaf'
S'min_weight_fraction_leaf'
S'max_features'
S'max_leaf_nodes'
S'min_impurity_decrease'
S'min_impurity_split'
S'random_state'
tp3274
sg3260
Nsg3256
Nsg3258
g3259
sg28
g29
sg3266
Nsg3267
Nsbag39
(g40
(I0
tS'b'
tRp3275
(I1
(I3
tg42
(S'f8'
I0
I1
tRp3276
(I3
S'<'
NNNI-1
I-1
I0
tbI00
S'\xd8\x82-\xd8\x82-\xe8?\xe2\x8e\xb8#\xee\x88\xeb?\x83\xbe\xa0/\xe8\x0b\xea?'
tbaa(lp3277
I544
ag4
(g5
g6
NtRp3278
(dp3279
S'warm_start'
p3280
I00
sS'base_estimator'
p3281
g4
(g11
g6
NtRp3282
(dp3283
S'presort'
p3284
I00
sS'splitter'
p3285
S'random'
p3286
sS'min_impurity_decrease'
p3287
F0
sS'min_impurity_split'
p3288
NsS'min_samples_leaf'
p3289
I1
sS'max_features'
p3290
S'auto'
p3291
sS'random_state'
p3292
NsS'criterion'
p3293
S'gini'
p3294
sS'min_weight_fraction_leaf'
p3295
F0
sS'max_leaf_nodes'
p3296
NsS'min_samples_split'
p3297
I2
sg28
g29
sS'max_depth'
p3298
NsS'class_weight'
p3299
NsbsS'n_jobs'
p3300
Nsg3287
F0
sS'verbose'
p3301
I0
sg3296
NsS'bootstrap'
p3302
I00
sS'oob_score'
p3303
I00
sg3289
I1
sS'n_estimators'
p3304
I100
sg3297
I2
sg3295
F0
sg3293
g3294
sS'estimator_params'
p3305
(S'criterion'
S'max_depth'
S'min_samples_split'
S'min_samples_leaf'
S'min_weight_fraction_leaf'
S'max_features'
S'max_leaf_nodes'
S'min_impurity_decrease'
S'min_impurity_split'
S'random_state'
tp3306
sg3292
Nsg3288
Nsg3290
g3291
sg28
g29
sg3298
Nsg3299
Nsbag39
(g40
(I0
tS'b'
tRp3307
(I1
(I3
tg42
(S'f8'
I0
I1
tRp3308
(I3
S'<'
NNNI-1
I-1
I0
tbI00
S'\xe9\xa2\x8b.\xba\xe8\xea?\xe9\xa2\x8b.\xba\xe8\xea?\x12w\xc4\x1dqG\xec?'
tbaa(lp3309
I405
ag4
(g5
g6
NtRp3310
(dp3311
S'warm_start'
p3312
I00
sS'base_estimator'
p3313
g4
(g11
g6
NtRp3314
(dp3315
S'presort'
p3316
I00
sS'splitter'
p3317
S'random'
p3318
sS'min_impurity_decrease'
p3319
F0
sS'min_impurity_split'
p3320
NsS'min_samples_leaf'
p3321
I1
sS'max_features'
p3322
S'auto'
p3323
sS'random_state'
p3324
NsS'criterion'
p3325
S'gini'
p3326
sS'min_weight_fraction_leaf'
p3327
F0
sS'max_leaf_nodes'
p3328
NsS'min_samples_split'
p3329
I2
sg28
g29
sS'max_depth'
p3330
NsS'class_weight'
p3331
NsbsS'n_jobs'
p3332
Nsg3319
F0
sS'verbose'
p3333
I0
sg3328
NsS'bootstrap'
p3334
I00
sS'oob_score'
p3335
I00
sg3321
I1
sS'n_estimators'
p3336
I100
sg3329
I2
sg3327
F0
sg3325
g3326
sS'estimator_params'
p3337
(S'criterion'
S'max_depth'
S'min_samples_split'
S'min_samples_leaf'
S'min_weight_fraction_leaf'
S'max_features'
S'max_leaf_nodes'
S'min_impurity_decrease'
S'min_impurity_split'
S'random_state'
tp3338
sg3324
Nsg3320
Nsg3322
g3323
sg28
g29
sg3330
Nsg3331
Nsbag39
(g40
(I0
tS'b'
tRp3339
(I1
(I3
tg42
(S'f8'
I0
I1
tRp3340
(I3
S'<'
NNNI-1
I-1
I0
tbI00
S'\x00\x00\x00\x00\x00\x00\xe8?\x00\x00\x00\x00\x00\x00\xe8?$\xee\x88;\xe2\x8e\xe8?'
tbaa(lp3341
I724
ag4
(g5
g6
NtRp3342
(dp3343
S'warm_start'
p3344
I00
sS'base_estimator'
p3345
g4
(g11
g6
NtRp3346
(dp3347
S'presort'
p3348
I00
sS'splitter'
p3349
S'random'
p3350
sS'min_impurity_decrease'
p3351
F0
sS'min_impurity_split'
p3352
NsS'min_samples_leaf'
p3353
I1
sS'max_features'
p3354
S'auto'
p3355
sS'random_state'
p3356
NsS'criterion'
p3357
S'gini'
p3358
sS'min_weight_fraction_leaf'
p3359
F0
sS'max_leaf_nodes'
p3360
NsS'min_samples_split'
p3361
I2
sg28
g29
sS'max_depth'
p3362
NsS'class_weight'
p3363
NsbsS'n_jobs'
p3364
Nsg3351
F0
sS'verbose'
p3365
I0
sg3360
NsS'bootstrap'
p3366
I00
sS'oob_score'
p3367
I00
sg3353
I1
sS'n_estimators'
p3368
I100
sg3361
I2
sg3359
F0
sg3357
g3358
sS'estimator_params'
p3369
(S'criterion'
S'max_depth'
S'min_samples_split'
S'min_samples_leaf'
S'min_weight_fraction_leaf'
S'max_features'
S'max_leaf_nodes'
S'min_impurity_decrease'
S'min_impurity_split'
S'random_state'
tp3370
sg3356
Nsg3352
Nsg3354
g3355
sg28
g29
sg3362
Nsg3363
Nsbag39
(g40
(I0
tS'b'
tRp3371
(I1
(I3
tg42
(S'f8'
I0
I1
tRp3372
(I3
S'<'
NNNI-1
I-1
I0
tbI00
S'\x00\x00\x00\x00\x00\x00\xe8?\xe9\xa2\x8b.\xba\xe8\xea?S\xd6\x945eM\xe9?'
tbaa(lp3373
I334
ag4
(g5
g6
NtRp3374
(dp3375
S'warm_start'
p3376
I00
sS'base_estimator'
p3377
g4
(g11
g6
NtRp3378
(dp3379
S'presort'
p3380
I00
sS'splitter'
p3381
S'random'
p3382
sS'min_impurity_decrease'
p3383
F0
sS'min_impurity_split'
p3384
NsS'min_samples_leaf'
p3385
I1
sS'max_features'
p3386
S'auto'
p3387
sS'random_state'
p3388
NsS'criterion'
p3389
S'gini'
p3390
sS'min_weight_fraction_leaf'
p3391
F0
sS'max_leaf_nodes'
p3392
NsS'min_samples_split'
p3393
I2
sg28
g29
sS'max_depth'
p3394
NsS'class_weight'
p3395
NsbsS'n_jobs'
p3396
Nsg3383
F0
sS'verbose'
p3397
I0
sg3392
NsS'bootstrap'
p3398
I00
sS'oob_score'
p3399
I00
sg3385
I1
sS'n_estimators'
p3400
I100
sg3393
I2
sg3391
F0
sg3389
g3390
sS'estimator_params'
p3401
(S'criterion'
S'max_depth'
S'min_samples_split'
S'min_samples_leaf'
S'min_weight_fraction_leaf'
S'max_features'
S'max_leaf_nodes'
S'min_impurity_decrease'
S'min_impurity_split'
S'random_state'
tp3402
sg3388
Nsg3384
Nsg3386
g3387
sg28
g29
sg3394
Nsg3395
Nsbag39
(g40
(I0
tS'b'
tRp3403
(I1
(I3
tg42
(S'f8'
I0
I1
tRp3404
(I3
S'<'
NNNI-1
I-1
I0
tbI00
S'9\x8e\xe38\x8e\xe3\xe8?\x83\xbe\xa0/\xe8\x0b\xea?\xb3\xa6\xac)k\xca\xea?'
tbaa(lp3405
I25
ag4
(g5
g6
NtRp3406
(dp3407
S'warm_start'
p3408
I00
sS'base_estimator'
p3409
g4
(g11
g6
NtRp3410
(dp3411
S'presort'
p3412
I00
sS'splitter'
p3413
S'random'
p3414
sS'min_impurity_decrease'
p3415
F0
sS'min_impurity_split'
p3416
NsS'min_samples_leaf'
p3417
I1
sS'max_features'
p3418
S'auto'
p3419
sS'random_state'
p3420
NsS'criterion'
p3421
S'gini'
p3422
sS'min_weight_fraction_leaf'
p3423
F0
sS'max_leaf_nodes'
p3424
NsS'min_samples_split'
p3425
I2
sg28
g29
sS'max_depth'
p3426
NsS'class_weight'
p3427
NsbsS'n_jobs'
p3428
Nsg3415
F0
sS'verbose'
p3429
I0
sg3424
NsS'bootstrap'
p3430
I00
sS'oob_score'
p3431
I00
sg3417
I1
sS'n_estimators'
p3432
I100
sg3425
I2
sg3423
F0
sg3421
g3422
sS'estimator_params'
p3433
(S'criterion'
S'max_depth'
S'min_samples_split'
S'min_samples_leaf'
S'min_weight_fraction_leaf'
S'max_features'
S'max_leaf_nodes'
S'min_impurity_decrease'
S'min_impurity_split'
S'random_state'
tp3434
sg3420
Nsg3416
Nsg3418
g3419
sg28
g29
sg3426
Nsg3427
Nsbag39
(g40
(I0
tS'b'
tRp3435
(I1
(I3
tg42
(S'f8'
I0
I1
tRp3436
(I3
S'<'
NNNI-1
I-1
I0
tbI00
S'\x17]t\xd1E\x17\xe5?\x8c.\xba\xe8\xa2\x8b\xe6?$\xee\x88;\xe2\x8e\xe8?'
tbaa(lp3437
I196
ag4
(g5
g6
NtRp3438
(dp3439
S'warm_start'
p3440
I00
sS'base_estimator'
p3441
g4
(g11
g6
NtRp3442
(dp3443
S'presort'
p3444
I00
sS'splitter'
p3445
S'random'
p3446
sS'min_impurity_decrease'
p3447
F0
sS'min_impurity_split'
p3448
NsS'min_samples_leaf'
p3449
I1
sS'max_features'
p3450
S'auto'
p3451
sS'random_state'
p3452
NsS'criterion'
p3453
S'gini'
p3454
sS'min_weight_fraction_leaf'
p3455
F0
sS'max_leaf_nodes'
p3456
NsS'min_samples_split'
p3457
I2
sg28
g29
sS'max_depth'
p3458
NsS'class_weight'
p3459
NsbsS'n_jobs'
p3460
Nsg3447
F0
sS'verbose'
p3461
I0
sg3456
NsS'bootstrap'
p3462
I00
sS'oob_score'
p3463
I00
sg3449
I1
sS'n_estimators'
p3464
I100
sg3457
I2
sg3455
F0
sg3453
g3454
sS'estimator_params'
p3465
(S'criterion'
S'max_depth'
S'min_samples_split'
S'min_samples_leaf'
S'min_weight_fraction_leaf'
S'max_features'
S'max_leaf_nodes'
S'min_impurity_decrease'
S'min_impurity_split'
S'random_state'
tp3466
sg3452
Nsg3448
Nsg3450
g3451
sg28
g29
sg3458
Nsg3459
Nsbag39
(g40
(I0
tS'b'
tRp3467
(I1
(I3
tg42
(S'f8'
I0
I1
tRp3468
(I3
S'<'
NNNI-1
I-1
I0
tbI00
S'\xd8\x82-\xd8\x82-\xe8?\xf4\x05}A_\xd0\xe7?\xd6\x945eMY\xe3?'
tbaa(lp3469
I88
ag4
(g5
g6
NtRp3470
(dp3471
S'warm_start'
p3472
I00
sS'base_estimator'
p3473
g4
(g11
g6
NtRp3474
(dp3475
S'presort'
p3476
I00
sS'splitter'
p3477
S'random'
p3478
sS'min_impurity_decrease'
p3479
F0
sS'min_impurity_split'
p3480
NsS'min_samples_leaf'
p3481
I1
sS'max_features'
p3482
S'auto'
p3483
sS'random_state'
p3484
NsS'criterion'
p3485
S'gini'
p3486
sS'min_weight_fraction_leaf'
p3487
F0
sS'max_leaf_nodes'
p3488
NsS'min_samples_split'
p3489
I2
sg28
g29
sS'max_depth'
p3490
NsS'class_weight'
p3491
NsbsS'n_jobs'
p3492
Nsg3479
F0
sS'verbose'
p3493
I0
sg3488
NsS'bootstrap'
p3494
I00
sS'oob_score'
p3495
I00
sg3481
I1
sS'n_estimators'
p3496
I100
sg3489
I2
sg3487
F0
sg3485
g3486
sS'estimator_params'
p3497
(S'criterion'
S'max_depth'
S'min_samples_split'
S'min_samples_leaf'
S'min_weight_fraction_leaf'
S'max_features'
S'max_leaf_nodes'
S'min_impurity_decrease'
S'min_impurity_split'
S'random_state'
tp3498
sg3484
Nsg3480
Nsg3482
g3483
sg28
g29
sg3490
Nsg3491
Nsbag39
(g40
(I0
tS'b'
tRp3499
(I1
(I3
tg42
(S'f8'
I0
I1
tRp3500
(I3
S'<'
NNNI-1
I-1
I0
tbI00
S'\xd1E\x17]t\xd1\xe5?F\x17]t\xd1E\xe7?\xf4\x05}A_\xd0\xe7?'
tbaa(lp3501
I421
ag4
(g5
g6
NtRp3502
(dp3503
S'warm_start'
p3504
I00
sS'base_estimator'
p3505
g4
(g11
g6
NtRp3506
(dp3507
S'presort'
p3508
I00
sS'splitter'
p3509
S'random'
p3510
sS'min_impurity_decrease'
p3511
F0
sS'min_impurity_split'
p3512
NsS'min_samples_leaf'
p3513
I1
sS'max_features'
p3514
S'auto'
p3515
sS'random_state'
p3516
NsS'criterion'
p3517
S'gini'
p3518
sS'min_weight_fraction_leaf'
p3519
F0
sS'max_leaf_nodes'
p3520
NsS'min_samples_split'
p3521
I2
sg28
g29
sS'max_depth'
p3522
NsS'class_weight'
p3523
NsbsS'n_jobs'
p3524
Nsg3511
F0
sS'verbose'
p3525
I0
sg3520
NsS'bootstrap'
p3526
I00
sS'oob_score'
p3527
I00
sg3513
I1
sS'n_estimators'
p3528
I100
sg3521
I2
sg3519
F0
sg3517
g3518
sS'estimator_params'
p3529
(S'criterion'
S'max_depth'
S'min_samples_split'
S'min_samples_leaf'
S'min_weight_fraction_leaf'
S'max_features'
S'max_leaf_nodes'
S'min_impurity_decrease'
S'min_impurity_split'
S'random_state'
tp3530
sg3516
Nsg3512
Nsg3514
g3515
sg28
g29
sg3522
Nsg3523
Nsbag39
(g40
(I0
tS'b'
tRp3531
(I1
(I3
tg42
(S'f8'
I0
I1
tRp3532
(I3
S'<'
NNNI-1
I-1
I0
tbI00
S'\x17]t\xd1E\x17\xed?]t\xd1E\x17]\xec?A_\xd0\x17\xf4\x05\xed?'
tbaa(lp3533
I726
ag4
(g5
g6
NtRp3534
(dp3535
S'warm_start'
p3536
I00
sS'base_estimator'
p3537
g4
(g11
g6
NtRp3538
(dp3539
S'presort'
p3540
I00
sS'splitter'
p3541
S'random'
p3542
sS'min_impurity_decrease'
p3543
F0
sS'min_impurity_split'
p3544
NsS'min_samples_leaf'
p3545
I1
sS'max_features'
p3546
S'auto'
p3547
sS'random_state'
p3548
NsS'criterion'
p3549
S'gini'
p3550
sS'min_weight_fraction_leaf'
p3551
F0
sS'max_leaf_nodes'
p3552
NsS'min_samples_split'
p3553
I2
sg28
g29
sS'max_depth'
p3554
NsS'class_weight'
p3555
NsbsS'n_jobs'
p3556
Nsg3543
F0
sS'verbose'
p3557
I0
sg3552
NsS'bootstrap'
p3558
I00
sS'oob_score'
p3559
I00
sg3545
I1
sS'n_estimators'
p3560
I100
sg3553
I2
sg3551
F0
sg3549
g3550
sS'estimator_params'
p3561
(S'criterion'
S'max_depth'
S'min_samples_split'
S'min_samples_leaf'
S'min_weight_fraction_leaf'
S'max_features'
S'max_leaf_nodes'
S'min_impurity_decrease'
S'min_impurity_split'
S'random_state'
tp3562
sg3548
Nsg3544
Nsg3546
g3547
sg28
g29
sg3554
Nsg3555
Nsbag39
(g40
(I0
tS'b'
tRp3563
(I1
(I3
tg42
(S'f8'
I0
I1
tRp3564
(I3
S'<'
NNNI-1
I-1
I0
tbI00
S'\xd1E\x17]t\xd1\xe5?]t\xd1E\x17]\xe4?6eMYS\xd6\xe4?'
tbaa(lp3565
I343
ag4
(g5
g6
NtRp3566
(dp3567
S'warm_start'
p3568
I00
sS'base_estimator'
p3569
g4
(g11
g6
NtRp3570
(dp3571
S'presort'
p3572
I00
sS'splitter'
p3573
S'random'
p3574
sS'min_impurity_decrease'
p3575
F0
sS'min_impurity_split'
p3576
NsS'min_samples_leaf'
p3577
I1
sS'max_features'
p3578
S'auto'
p3579
sS'random_state'
p3580
NsS'criterion'
p3581
S'gini'
p3582
sS'min_weight_fraction_leaf'
p3583
F0
sS'max_leaf_nodes'
p3584
NsS'min_samples_split'
p3585
I2
sg28
g29
sS'max_depth'
p3586
NsS'class_weight'
p3587
NsbsS'n_jobs'
p3588
Nsg3575
F0
sS'verbose'
p3589
I0
sg3584
NsS'bootstrap'
p3590
I00
sS'oob_score'
p3591
I00
sg3577
I1
sS'n_estimators'
p3592
I100
sg3585
I2
sg3583
F0
sg3581
g3582
sS'estimator_params'
p3593
(S'criterion'
S'max_depth'
S'min_samples_split'
S'min_samples_leaf'
S'min_weight_fraction_leaf'
S'max_features'
S'max_leaf_nodes'
S'min_impurity_decrease'
S'min_impurity_split'
S'random_state'
tp3594
sg3580
Nsg3576
Nsg3578
g3579
sg28
g29
sg3586
Nsg3587
Nsbag39
(g40
(I0
tS'b'
tRp3595
(I1
(I3
tg42
(S'f8'
I0
I1
tRp3596
(I3
S'<'
NNNI-1
I-1
I0
tbI00
S'[\xb0\x05[\xb0\x05\xeb?\x12w\xc4\x1dqG\xec?\x12w\xc4\x1dqG\xec?'
tbaa(lp3597
I174
ag4
(g5
g6
NtRp3598
(dp3599
S'warm_start'
p3600
I00
sS'base_estimator'
p3601
g4
(g11
g6
NtRp3602
(dp3603
S'presort'
p3604
I00
sS'splitter'
p3605
S'random'
p3606
sS'min_impurity_decrease'
p3607
F0
sS'min_impurity_split'
p3608
NsS'min_samples_leaf'
p3609
I1
sS'max_features'
p3610
S'auto'
p3611
sS'random_state'
p3612
NsS'criterion'
p3613
S'gini'
p3614
sS'min_weight_fraction_leaf'
p3615
F0
sS'max_leaf_nodes'
p3616
NsS'min_samples_split'
p3617
I2
sg28
g29
sS'max_depth'
p3618
NsS'class_weight'
p3619
NsbsS'n_jobs'
p3620
Nsg3607
F0
sS'verbose'
p3621
I0
sg3616
NsS'bootstrap'
p3622
I00
sS'oob_score'
p3623
I00
sg3609
I1
sS'n_estimators'
p3624
I100
sg3617
I2
sg3615
F0
sg3613
g3614
sS'estimator_params'
p3625
(S'criterion'
S'max_depth'
S'min_samples_split'
S'min_samples_leaf'
S'min_weight_fraction_leaf'
S'max_features'
S'max_leaf_nodes'
S'min_impurity_decrease'
S'min_impurity_split'
S'random_state'
tp3626
sg3612
Nsg3608
Nsg3610
g3611
sg28
g29
sg3618
Nsg3619
Nsbag39
(g40
(I0
tS'b'
tRp3627
(I1
(I3
tg42
(S'f8'
I0
I1
tRp3628
(I3
S'<'
NNNI-1
I-1
I0
tbI00
S'\xfa\xa4O\xfa\xa4O\xea?\xb3\xa6\xac)k\xca\xea?\xb3\xa6\xac)k\xca\xea?'
tbaa(lp3629
I1073
ag4
(g5
g6
NtRp3630
(dp3631
S'warm_start'
p3632
I00
sS'base_estimator'
p3633
g4
(g11
g6
NtRp3634
(dp3635
S'presort'
p3636
I00
sS'splitter'
p3637
S'random'
p3638
sS'min_impurity_decrease'
p3639
F0
sS'min_impurity_split'
p3640
NsS'min_samples_leaf'
p3641
I1
sS'max_features'
p3642
S'auto'
p3643
sS'random_state'
p3644
NsS'criterion'
p3645
S'gini'
p3646
sS'min_weight_fraction_leaf'
p3647
F0
sS'max_leaf_nodes'
p3648
NsS'min_samples_split'
p3649
I2
sg28
g29
sS'max_depth'
p3650
NsS'class_weight'
p3651
NsbsS'n_jobs'
p3652
Nsg3639
F0
sS'verbose'
p3653
I0
sg3648
NsS'bootstrap'
p3654
I00
sS'oob_score'
p3655
I00
sg3641
I1
sS'n_estimators'
p3656
I100
sg3649
I2
sg3647
F0
sg3645
g3646
sS'estimator_params'
p3657
(S'criterion'
S'max_depth'
S'min_samples_split'
S'min_samples_leaf'
S'min_weight_fraction_leaf'
S'max_features'
S'max_leaf_nodes'
S'min_impurity_decrease'
S'min_impurity_split'
S'random_state'
tp3658
sg3644
Nsg3640
Nsg3642
g3643
sg28
g29
sg3650
Nsg3651
Nsbag39
(g40
(I0
tS'b'
tRp3659
(I1
(I3
tg42
(S'f8'
I0
I1
tRp3660
(I3
S'<'
NNNI-1
I-1
I0
tbI00
S'\x17]t\xd1E\x17\xe5?]t\xd1E\x17]\xe4?\xc4\x1dqG\xdc\x11\xe7?'
tbaa(lp3661
I396
ag4
(g5
g6
NtRp3662
(dp3663
S'warm_start'
p3664
I00
sS'base_estimator'
p3665
g4
(g11
g6
NtRp3666
(dp3667
S'presort'
p3668
I00
sS'splitter'
p3669
S'random'
p3670
sS'min_impurity_decrease'
p3671
F0
sS'min_impurity_split'
p3672
NsS'min_samples_leaf'
p3673
I1
sS'max_features'
p3674
S'auto'
p3675
sS'random_state'
p3676
NsS'criterion'
p3677
S'gini'
p3678
sS'min_weight_fraction_leaf'
p3679
F0
sS'max_leaf_nodes'
p3680
NsS'min_samples_split'
p3681
I2
sg28
g29
sS'max_depth'
p3682
NsS'class_weight'
p3683
NsbsS'n_jobs'
p3684
Nsg3671
F0
sS'verbose'
p3685
I0
sg3680
NsS'bootstrap'
p3686
I00
sS'oob_score'
p3687
I00
sg3673
I1
sS'n_estimators'
p3688
I100
sg3681
I2
sg3679
F0
sg3677
g3678
sS'estimator_params'
p3689
(S'criterion'
S'max_depth'
S'min_samples_split'
S'min_samples_leaf'
S'min_weight_fraction_leaf'
S'max_features'
S'max_leaf_nodes'
S'min_impurity_decrease'
S'min_impurity_split'
S'random_state'
tp3690
sg3676
Nsg3672
Nsg3674
g3675
sg28
g29
sg3682
Nsg3683
Nsbag39
(g40
(I0
tS'b'
tRp3691
(I1
(I3
tg42
(S'f8'
I0
I1
tRp3692
(I3
S'<'
NNNI-1
I-1
I0
tbI00
S'F\x17]t\xd1E\xe7?\x8c.\xba\xe8\xa2\x8b\xe6?\x955eMYS\xe6?'
tbaa(lp3693
I617
ag4
(g5
g6
NtRp3694
(dp3695
S'warm_start'
p3696
I00
sS'base_estimator'
p3697
g4
(g11
g6
NtRp3698
(dp3699
S'presort'
p3700
I00
sS'splitter'
p3701
S'random'
p3702
sS'min_impurity_decrease'
p3703
F0
sS'min_impurity_split'
p3704
NsS'min_samples_leaf'
p3705
I1
sS'max_features'
p3706
S'auto'
p3707
sS'random_state'
p3708
NsS'criterion'
p3709
S'gini'
p3710
sS'min_weight_fraction_leaf'
p3711
F0
sS'max_leaf_nodes'
p3712
NsS'min_samples_split'
p3713
I2
sg28
g29
sS'max_depth'
p3714
NsS'class_weight'
p3715
NsbsS'n_jobs'
p3716
Nsg3703
F0
sS'verbose'
p3717
I0
sg3712
NsS'bootstrap'
p3718
I00
sS'oob_score'
p3719
I00
sg3705
I1
sS'n_estimators'
p3720
I100
sg3713
I2
sg3711
F0
sg3709
g3710
sS'estimator_params'
p3721
(S'criterion'
S'max_depth'
S'min_samples_split'
S'min_samples_leaf'
S'min_weight_fraction_leaf'
S'max_features'
S'max_leaf_nodes'
S'min_impurity_decrease'
S'min_impurity_split'
S'random_state'
tp3722
sg3708
Nsg3704
Nsg3706
g3707
sg28
g29
sg3714
Nsg3715
Nsbag39
(g40
(I0
tS'b'
tRp3723
(I1
(I3
tg42
(S'f8'
I0
I1
tRp3724
(I3
S'<'
NNNI-1
I-1
I0
tbI00
S'\x00\x00\x00\x00\x00\x00\xe8?\xd1E\x17]t\xd1\xe5?6eMYS\xd6\xe4?'
tbaa(lp3725
I244
ag4
(g5
g6
NtRp3726
(dp3727
S'warm_start'
p3728
I00
sS'base_estimator'
p3729
g4
(g11
g6
NtRp3730
(dp3731
S'presort'
p3732
I00
sS'splitter'
p3733
S'random'
p3734
sS'min_impurity_decrease'
p3735
F0
sS'min_impurity_split'
p3736
NsS'min_samples_leaf'
p3737
I1
sS'max_features'
p3738
S'auto'
p3739
sS'random_state'
p3740
NsS'criterion'
p3741
S'gini'
p3742
sS'min_weight_fraction_leaf'
p3743
F0
sS'max_leaf_nodes'
p3744
NsS'min_samples_split'
p3745
I2
sg28
g29
sS'max_depth'
p3746
NsS'class_weight'
p3747
NsbsS'n_jobs'
p3748
Nsg3735
F0
sS'verbose'
p3749
I0
sg3744
NsS'bootstrap'
p3750
I00
sS'oob_score'
p3751
I00
sg3737
I1
sS'n_estimators'
p3752
I100
sg3745
I2
sg3743
F0
sg3741
g3742
sS'estimator_params'
p3753
(S'criterion'
S'max_depth'
S'min_samples_split'
S'min_samples_leaf'
S'min_weight_fraction_leaf'
S'max_features'
S'max_leaf_nodes'
S'min_impurity_decrease'
S'min_impurity_split'
S'random_state'
tp3754
sg3740
Nsg3736
Nsg3738
g3739
sg28
g29
sg3746
Nsg3747
Nsbag39
(g40
(I0
tS'b'
tRp3755
(I1
(I3
tg42
(S'f8'
I0
I1
tRp3756
(I3
S'<'
NNNI-1
I-1
I0
tbI00
S"\xd2'}\xd2'}\xe2?6eMYS\xd6\xe4?G\xdc\x11w\xc4\x1d\xe1?"
tbaa(lp3757
I22
ag4
(g5
g6
NtRp3758
(dp3759
S'warm_start'
p3760
I00
sS'base_estimator'
p3761
g4
(g11
g6
NtRp3762
(dp3763
S'presort'
p3764
I00
sS'splitter'
p3765
S'random'
p3766
sS'min_impurity_decrease'
p3767
F0
sS'min_impurity_split'
p3768
NsS'min_samples_leaf'
p3769
I1
sS'max_features'
p3770
S'auto'
p3771
sS'random_state'
p3772
NsS'criterion'
p3773
S'gini'
p3774
sS'min_weight_fraction_leaf'
p3775
F0
sS'max_leaf_nodes'
p3776
NsS'min_samples_split'
p3777
I2
sg28
g29
sS'max_depth'
p3778
NsS'class_weight'
p3779
NsbsS'n_jobs'
p3780
Nsg3767
F0
sS'verbose'
p3781
I0
sg3776
NsS'bootstrap'
p3782
I00
sS'oob_score'
p3783
I00
sg3769
I1
sS'n_estimators'
p3784
I100
sg3777
I2
sg3775
F0
sg3773
g3774
sS'estimator_params'
p3785
(S'criterion'
S'max_depth'
S'min_samples_split'
S'min_samples_leaf'
S'min_weight_fraction_leaf'
S'max_features'
S'max_leaf_nodes'
S'min_impurity_decrease'
S'min_impurity_split'
S'random_state'
tp3786
sg3772
Nsg3768
Nsg3770
g3771
sg28
g29
sg3778
Nsg3779
Nsbag39
(g40
(I0
tS'b'
tRp3787
(I1
(I3
tg42
(S'f8'
I0
I1
tRp3788
(I3
S'<'
NNNI-1
I-1
I0
tbI00
S'9\x8e\xe38\x8e\xe3\xe8?\x83\xbe\xa0/\xe8\x0b\xea?\x83\xbe\xa0/\xe8\x0b\xea?'
tbaa(lp3789
I969
ag4
(g5
g6
NtRp3790
(dp3791
S'warm_start'
p3792
I00
sS'base_estimator'
p3793
g4
(g11
g6
NtRp3794
(dp3795
S'presort'
p3796
I00
sS'splitter'
p3797
S'random'
p3798
sS'min_impurity_decrease'
p3799
F0
sS'min_impurity_split'
p3800
NsS'min_samples_leaf'
p3801
I1
sS'max_features'
p3802
S'auto'
p3803
sS'random_state'
p3804
NsS'criterion'
p3805
S'gini'
p3806
sS'min_weight_fraction_leaf'
p3807
F0
sS'max_leaf_nodes'
p3808
NsS'min_samples_split'
p3809
I2
sg28
g29
sS'max_depth'
p3810
NsS'class_weight'
p3811
NsbsS'n_jobs'
p3812
Nsg3799
F0
sS'verbose'
p3813
I0
sg3808
NsS'bootstrap'
p3814
I00
sS'oob_score'
p3815
I00
sg3801
I1
sS'n_estimators'
p3816
I100
sg3809
I2
sg3807
F0
sg3805
g3806
sS'estimator_params'
p3817
(S'criterion'
S'max_depth'
S'min_samples_split'
S'min_samples_leaf'
S'min_weight_fraction_leaf'
S'max_features'
S'max_leaf_nodes'
S'min_impurity_decrease'
S'min_impurity_split'
S'random_state'
tp3818
sg3804
Nsg3800
Nsg3802
g3803
sg28
g29
sg3810
Nsg3811
Nsbag39
(g40
(I0
tS'b'
tRp3819
(I1
(I3
tg42
(S'f8'
I0
I1
tRp3820
(I3
S'<'
NNNI-1
I-1
I0
tbI00
S'\xa3\x8b.\xba\xe8\xa2\xeb?\xe9\xa2\x8b.\xba\xe8\xea?\xb3\xa6\xac)k\xca\xea?'
tbaa(lp3821
I966
ag4
(g5
g6
NtRp3822
(dp3823
S'warm_start'
p3824
I00
sS'base_estimator'
p3825
g4
(g11
g6
NtRp3826
(dp3827
S'presort'
p3828
I00
sS'splitter'
p3829
S'random'
p3830
sS'min_impurity_decrease'
p3831
F0
sS'min_impurity_split'
p3832
NsS'min_samples_leaf'
p3833
I1
sS'max_features'
p3834
S'auto'
p3835
sS'random_state'
p3836
NsS'criterion'
p3837
S'gini'
p3838
sS'min_weight_fraction_leaf'
p3839
F0
sS'max_leaf_nodes'
p3840
NsS'min_samples_split'
p3841
I2
sg28
g29
sS'max_depth'
p3842
NsS'class_weight'
p3843
NsbsS'n_jobs'
p3844
Nsg3831
F0
sS'verbose'
p3845
I0
sg3840
NsS'bootstrap'
p3846
I00
sS'oob_score'
p3847
I00
sg3833
I1
sS'n_estimators'
p3848
I100
sg3841
I2
sg3839
F0
sg3837
g3838
sS'estimator_params'
p3849
(S'criterion'
S'max_depth'
S'min_samples_split'
S'min_samples_leaf'
S'min_weight_fraction_leaf'
S'max_features'
S'max_leaf_nodes'
S'min_impurity_decrease'
S'min_impurity_split'
S'random_state'
tp3850
sg3836
Nsg3832
Nsg3834
g3835
sg28
g29
sg3842
Nsg3843
Nsbag39
(g40
(I0
tS'b'
tRp3851
(I1
(I3
tg42
(S'f8'
I0
I1
tRp3852
(I3
S'<'
NNNI-1
I-1
I0
tbI00
S'r\x1c\xc7q\x1c\xc7\xe1?\x955eMYS\xe6?eMYS\xd6\x94\xe5?'
tbaa(lp3853
I835
ag4
(g5
g6
NtRp3854
(dp3855
S'warm_start'
p3856
I00
sS'base_estimator'
p3857
g4
(g11
g6
NtRp3858
(dp3859
S'presort'
p3860
I00
sS'splitter'
p3861
S'random'
p3862
sS'min_impurity_decrease'
p3863
F0
sS'min_impurity_split'
p3864
NsS'min_samples_leaf'
p3865
I1
sS'max_features'
p3866
S'auto'
p3867
sS'random_state'
p3868
NsS'criterion'
p3869
S'gini'
p3870
sS'min_weight_fraction_leaf'
p3871
F0
sS'max_leaf_nodes'
p3872
NsS'min_samples_split'
p3873
I2
sg28
g29
sS'max_depth'
p3874
NsS'class_weight'
p3875
NsbsS'n_jobs'
p3876
Nsg3863
F0
sS'verbose'
p3877
I0
sg3872
NsS'bootstrap'
p3878
I00
sS'oob_score'
p3879
I00
sg3865
I1
sS'n_estimators'
p3880
I100
sg3873
I2
sg3871
F0
sg3869
g3870
sS'estimator_params'
p3881
(S'criterion'
S'max_depth'
S'min_samples_split'
S'min_samples_leaf'
S'min_weight_fraction_leaf'
S'max_features'
S'max_leaf_nodes'
S'min_impurity_decrease'
S'min_impurity_split'
S'random_state'
tp3882
sg3868
Nsg3864
Nsg3866
g3867
sg28
g29
sg3874
Nsg3875
Nsbag39
(g40
(I0
tS'b'
tRp3883
(I1
(I3
tg42
(S'f8'
I0
I1
tRp3884
(I3
S'<'
NNNI-1
I-1
I0
tbI00
S'/\xba\xe8\xa2\x8b.\xea?\xa3\x8b.\xba\xe8\xa2\xeb?\x12w\xc4\x1dqG\xec?'
tbaa(lp3885
I225
ag4
(g5
g6
NtRp3886
(dp3887
S'warm_start'
p3888
I00
sS'base_estimator'
p3889
g4
(g11
g6
NtRp3890
(dp3891
S'presort'
p3892
I00
sS'splitter'
p3893
S'random'
p3894
sS'min_impurity_decrease'
p3895
F0
sS'min_impurity_split'
p3896
NsS'min_samples_leaf'
p3897
I1
sS'max_features'
p3898
S'auto'
p3899
sS'random_state'
p3900
NsS'criterion'
p3901
S'gini'
p3902
sS'min_weight_fraction_leaf'
p3903
F0
sS'max_leaf_nodes'
p3904
NsS'min_samples_split'
p3905
I2
sg28
g29
sS'max_depth'
p3906
NsS'class_weight'
p3907
NsbsS'n_jobs'
p3908
Nsg3895
F0
sS'verbose'
p3909
I0
sg3904
NsS'bootstrap'
p3910
I00
sS'oob_score'
p3911
I00
sg3897
I1
sS'n_estimators'
p3912
I100
sg3905
I2
sg3903
F0
sg3901
g3902
sS'estimator_params'
p3913
(S'criterion'
S'max_depth'
S'min_samples_split'
S'min_samples_leaf'
S'min_weight_fraction_leaf'
S'max_features'
S'max_leaf_nodes'
S'min_impurity_decrease'
S'min_impurity_split'
S'random_state'
tp3914
sg3900
Nsg3896
Nsg3898
g3899
sg28
g29
sg3906
Nsg3907
Nsbag39
(g40
(I0
tS'b'
tRp3915
(I1
(I3
tg42
(S'f8'
I0
I1
tRp3916
(I3
S'<'
NNNI-1
I-1
I0
tbI00
S'\xe9\xa2\x8b.\xba\xe8\xe2?\x17]t\xd1E\x17\xe5?\x06}A_\xd0\x17\xe4?'
tbaa(lp3917
I996
ag4
(g5
g6
NtRp3918
(dp3919
S'warm_start'
p3920
I00
sS'base_estimator'
p3921
g4
(g11
g6
NtRp3922
(dp3923
S'presort'
p3924
I00
sS'splitter'
p3925
S'random'
p3926
sS'min_impurity_decrease'
p3927
F0
sS'min_impurity_split'
p3928
NsS'min_samples_leaf'
p3929
I1
sS'max_features'
p3930
S'auto'
p3931
sS'random_state'
p3932
NsS'criterion'
p3933
S'gini'
p3934
sS'min_weight_fraction_leaf'
p3935
F0
sS'max_leaf_nodes'
p3936
NsS'min_samples_split'
p3937
I2
sg28
g29
sS'max_depth'
p3938
NsS'class_weight'
p3939
NsbsS'n_jobs'
p3940
Nsg3927
F0
sS'verbose'
p3941
I0
sg3936
NsS'bootstrap'
p3942
I00
sS'oob_score'
p3943
I00
sg3929
I1
sS'n_estimators'
p3944
I100
sg3937
I2
sg3935
F0
sg3933
g3934
sS'estimator_params'
p3945
(S'criterion'
S'max_depth'
S'min_samples_split'
S'min_samples_leaf'
S'min_weight_fraction_leaf'
S'max_features'
S'max_leaf_nodes'
S'min_impurity_decrease'
S'min_impurity_split'
S'random_state'
tp3946
sg3932
Nsg3928
Nsg3930
g3931
sg28
g29
sg3938
Nsg3939
Nsbag39
(g40
(I0
tS'b'
tRp3947
(I1
(I3
tg42
(S'f8'
I0
I1
tRp3948
(I3
S'<'
NNNI-1
I-1
I0
tbI00
S"\xd2'}\xd2'}\xe2?\x06}A_\xd0\x17\xe4?\xa7\xac)k\xca\x9a\xe2?"
tbaa(lp3949
I656
ag4
(g5
g6
NtRp3950
(dp3951
S'warm_start'
p3952
I00
sS'base_estimator'
p3953
g4
(g11
g6
NtRp3954
(dp3955
S'presort'
p3956
I00
sS'splitter'
p3957
S'random'
p3958
sS'min_impurity_decrease'
p3959
F0
sS'min_impurity_split'
p3960
NsS'min_samples_leaf'
p3961
I1
sS'max_features'
p3962
S'auto'
p3963
sS'random_state'
p3964
NsS'criterion'
p3965
S'gini'
p3966
sS'min_weight_fraction_leaf'
p3967
F0
sS'max_leaf_nodes'
p3968
NsS'min_samples_split'
p3969
I2
sg28
g29
sS'max_depth'
p3970
NsS'class_weight'
p3971
NsbsS'n_jobs'
p3972
Nsg3959
F0
sS'verbose'
p3973
I0
sg3968
NsS'bootstrap'
p3974
I00
sS'oob_score'
p3975
I00
sg3961
I1
sS'n_estimators'
p3976
I100
sg3969
I2
sg3967
F0
sg3965
g3966
sS'estimator_params'
p3977
(S'criterion'
S'max_depth'
S'min_samples_split'
S'min_samples_leaf'
S'min_weight_fraction_leaf'
S'max_features'
S'max_leaf_nodes'
S'min_impurity_decrease'
S'min_impurity_split'
S'random_state'
tp3978
sg3964
Nsg3960
Nsg3962
g3963
sg28
g29
sg3970
Nsg3971
Nsbag39
(g40
(I0
tS'b'
tRp3979
(I1
(I3
tg42
(S'f8'
I0
I1
tRp3980
(I3
S'<'
NNNI-1
I-1
I0
tbI00
S'wwwwww\xe7?S\xd6\x945eM\xe9?\xf4\x05}A_\xd0\xe7?'
tbaa(lp3981
I217
ag4
(g5
g6
NtRp3982
(dp3983
S'warm_start'
p3984
I00
sS'base_estimator'
p3985
g4
(g11
g6
NtRp3986
(dp3987
S'presort'
p3988
I00
sS'splitter'
p3989
S'random'
p3990
sS'min_impurity_decrease'
p3991
F0
sS'min_impurity_split'
p3992
NsS'min_samples_leaf'
p3993
I1
sS'max_features'
p3994
S'auto'
p3995
sS'random_state'
p3996
NsS'criterion'
p3997
S'gini'
p3998
sS'min_weight_fraction_leaf'
p3999
F0
sS'max_leaf_nodes'
p4000
NsS'min_samples_split'
p4001
I2
sg28
g29
sS'max_depth'
p4002
NsS'class_weight'
p4003
NsbsS'n_jobs'
p4004
Nsg3991
F0
sS'verbose'
p4005
I0
sg4000
NsS'bootstrap'
p4006
I00
sS'oob_score'
p4007
I00
sg3993
I1
sS'n_estimators'
p4008
I100
sg4001
I2
sg3999
F0
sg3997
g3998
sS'estimator_params'
p4009
(S'criterion'
S'max_depth'
S'min_samples_split'
S'min_samples_leaf'
S'min_weight_fraction_leaf'
S'max_features'
S'max_leaf_nodes'
S'min_impurity_decrease'
S'min_impurity_split'
S'random_state'
tp4010
sg3996
Nsg3992
Nsg3994
g3995
sg28
g29
sg4002
Nsg4003
Nsbag39
(g40
(I0
tS'b'
tRp4011
(I1
(I3
tg42
(S'f8'
I0
I1
tRp4012
(I3
S'<'
NNNI-1
I-1
I0
tbI00
S'\xd1E\x17]t\xd1\xe5?\x00\x00\x00\x00\x00\x00\xe8?\xf4\x05}A_\xd0\xe7?'
tbaa(lp4013
I63
ag4
(g5
g6
NtRp4014
(dp4015
S'warm_start'
p4016
I00
sS'base_estimator'
p4017
g4
(g11
g6
NtRp4018
(dp4019
S'presort'
p4020
I00
sS'splitter'
p4021
S'random'
p4022
sS'min_impurity_decrease'
p4023
F0
sS'min_impurity_split'
p4024
NsS'min_samples_leaf'
p4025
I1
sS'max_features'
p4026
S'auto'
p4027
sS'random_state'
p4028
NsS'criterion'
p4029
S'gini'
p4030
sS'min_weight_fraction_leaf'
p4031
F0
sS'max_leaf_nodes'
p4032
NsS'min_samples_split'
p4033
I2
sg28
g29
sS'max_depth'
p4034
NsS'class_weight'
p4035
NsbsS'n_jobs'
p4036
Nsg4023
F0
sS'verbose'
p4037
I0
sg4032
NsS'bootstrap'
p4038
I00
sS'oob_score'
p4039
I00
sg4025
I1
sS'n_estimators'
p4040
I100
sg4033
I2
sg4031
F0
sg4029
g4030
sS'estimator_params'
p4041
(S'criterion'
S'max_depth'
S'min_samples_split'
S'min_samples_leaf'
S'min_weight_fraction_leaf'
S'max_features'
S'max_leaf_nodes'
S'min_impurity_decrease'
S'min_impurity_split'
S'random_state'
tp4042
sg4028
Nsg4024
Nsg4026
g4027
sg28
g29
sg4034
Nsg4035
Nsbag39
(g40
(I0
tS'b'
tRp4043
(I1
(I3
tg42
(S'f8'
I0
I1
tRp4044
(I3
S'<'
NNNI-1
I-1
I0
tbI00
S'\x8c.\xba\xe8\xa2\x8b\xde?]t\xd1E\x17]\xe4?qG\xdc\x11w\xc4\xdd?'
tbaa(lp4045
I953
ag4
(g5
g6
NtRp4046
(dp4047
S'warm_start'
p4048
I00
sS'base_estimator'
p4049
g4
(g11
g6
NtRp4050
(dp4051
S'presort'
p4052
I00
sS'splitter'
p4053
S'random'
p4054
sS'min_impurity_decrease'
p4055
F0
sS'min_impurity_split'
p4056
NsS'min_samples_leaf'
p4057
I1
sS'max_features'
p4058
S'auto'
p4059
sS'random_state'
p4060
NsS'criterion'
p4061
S'gini'
p4062
sS'min_weight_fraction_leaf'
p4063
F0
sS'max_leaf_nodes'
p4064
NsS'min_samples_split'
p4065
I2
sg28
g29
sS'max_depth'
p4066
NsS'class_weight'
p4067
NsbsS'n_jobs'
p4068
Nsg4055
F0
sS'verbose'
p4069
I0
sg4064
NsS'bootstrap'
p4070
I00
sS'oob_score'
p4071
I00
sg4057
I1
sS'n_estimators'
p4072
I100
sg4065
I2
sg4063
F0
sg4061
g4062
sS'estimator_params'
p4073
(S'criterion'
S'max_depth'
S'min_samples_split'
S'min_samples_leaf'
S'min_weight_fraction_leaf'
S'max_features'
S'max_leaf_nodes'
S'min_impurity_decrease'
S'min_impurity_split'
S'random_state'
tp4074
sg4060
Nsg4056
Nsg4058
g4059
sg28
g29
sg4066
Nsg4067
Nsbag39
(g40
(I0
tS'b'
tRp4075
(I1
(I3
tg42
(S'f8'
I0
I1
tRp4076
(I3
S'<'
NNNI-1
I-1
I0
tbI00
S't\xd1E\x17]t\xe9?F\x17]t\xd1E\xe7?$\xee\x88;\xe2\x8e\xe8?'
tbaa(lp4077
I920
ag4
(g5
g6
NtRp4078
(dp4079
S'warm_start'
p4080
I00
sS'base_estimator'
p4081
g4
(g11
g6
NtRp4082
(dp4083
S'presort'
p4084
I00
sS'splitter'
p4085
S'random'
p4086
sS'min_impurity_decrease'
p4087
F0
sS'min_impurity_split'
p4088
NsS'min_samples_leaf'
p4089
I1
sS'max_features'
p4090
S'auto'
p4091
sS'random_state'
p4092
NsS'criterion'
p4093
S'gini'
p4094
sS'min_weight_fraction_leaf'
p4095
F0
sS'max_leaf_nodes'
p4096
NsS'min_samples_split'
p4097
I2
sg28
g29
sS'max_depth'
p4098
NsS'class_weight'
p4099
NsbsS'n_jobs'
p4100
Nsg4087
F0
sS'verbose'
p4101
I0
sg4096
NsS'bootstrap'
p4102
I00
sS'oob_score'
p4103
I00
sg4089
I1
sS'n_estimators'
p4104
I100
sg4097
I2
sg4095
F0
sg4093
g4094
sS'estimator_params'
p4105
(S'criterion'
S'max_depth'
S'min_samples_split'
S'min_samples_leaf'
S'min_weight_fraction_leaf'
S'max_features'
S'max_leaf_nodes'
S'min_impurity_decrease'
S'min_impurity_split'
S'random_state'
tp4106
sg4092
Nsg4088
Nsg4090
g4091
sg28
g29
sg4098
Nsg4099
Nsbag39
(g40
(I0
tS'b'
tRp4107
(I1
(I3
tg42
(S'f8'
I0
I1
tRp4108
(I3
S'<'
NNNI-1
I-1
I0
tbI00
S'\x8c.\xba\xe8\xa2\x8b\xe6?\xd1E\x17]t\xd1\xe5?\xf4\x05}A_\xd0\xe7?'
tbaa(lp4109
I800
ag4
(g5
g6
NtRp4110
(dp4111
S'warm_start'
p4112
I00
sS'base_estimator'
p4113
g4
(g11
g6
NtRp4114
(dp4115
S'presort'
p4116
I00
sS'splitter'
p4117
S'random'
p4118
sS'min_impurity_decrease'
p4119
F0
sS'min_impurity_split'
p4120
NsS'min_samples_leaf'
p4121
I1
sS'max_features'
p4122
S'auto'
p4123
sS'random_state'
p4124
NsS'criterion'
p4125
S'gini'
p4126
sS'min_weight_fraction_leaf'
p4127
F0
sS'max_leaf_nodes'
p4128
NsS'min_samples_split'
p4129
I2
sg28
g29
sS'max_depth'
p4130
NsS'class_weight'
p4131
NsbsS'n_jobs'
p4132
Nsg4119
F0
sS'verbose'
p4133
I0
sg4128
NsS'bootstrap'
p4134
I00
sS'oob_score'
p4135
I00
sg4121
I1
sS'n_estimators'
p4136
I100
sg4129
I2
sg4127
F0
sg4125
g4126
sS'estimator_params'
p4137
(S'criterion'
S'max_depth'
S'min_samples_split'
S'min_samples_leaf'
S'min_weight_fraction_leaf'
S'max_features'
S'max_leaf_nodes'
S'min_impurity_decrease'
S'min_impurity_split'
S'random_state'
tp4138
sg4124
Nsg4120
Nsg4122
g4123
sg28
g29
sg4130
Nsg4131
Nsbag39
(g40
(I0
tS'b'
tRp4139
(I1
(I3
tg42
(S'f8'
I0
I1
tRp4140
(I3
S'<'
NNNI-1
I-1
I0
tbI00
S'\x00\x00\x00\x00\x00\x00\xe8?F\x17]t\xd1E\xe7?$\xee\x88;\xe2\x8e\xe8?'
tbaa(lp4141
I891
ag4
(g5
g6
NtRp4142
(dp4143
S'warm_start'
p4144
I00
sS'base_estimator'
p4145
g4
(g11
g6
NtRp4146
(dp4147
S'presort'
p4148
I00
sS'splitter'
p4149
S'random'
p4150
sS'min_impurity_decrease'
p4151
F0
sS'min_impurity_split'
p4152
NsS'min_samples_leaf'
p4153
I1
sS'max_features'
p4154
S'auto'
p4155
sS'random_state'
p4156
NsS'criterion'
p4157
S'gini'
p4158
sS'min_weight_fraction_leaf'
p4159
F0
sS'max_leaf_nodes'
p4160
NsS'min_samples_split'
p4161
I2
sg28
g29
sS'max_depth'
p4162
NsS'class_weight'
p4163
NsbsS'n_jobs'
p4164
Nsg4151
F0
sS'verbose'
p4165
I0
sg4160
NsS'bootstrap'
p4166
I00
sS'oob_score'
p4167
I00
sg4153
I1
sS'n_estimators'
p4168
I100
sg4161
I2
sg4159
F0
sg4157
g4158
sS'estimator_params'
p4169
(S'criterion'
S'max_depth'
S'min_samples_split'
S'min_samples_leaf'
S'min_weight_fraction_leaf'
S'max_features'
S'max_leaf_nodes'
S'min_impurity_decrease'
S'min_impurity_split'
S'random_state'
tp4170
sg4156
Nsg4152
Nsg4154
g4155
sg28
g29
sg4162
Nsg4163
Nsbag39
(g40
(I0
tS'b'
tRp4171
(I1
(I3
tg42
(S'f8'
I0
I1
tRp4172
(I3
S'<'
NNNI-1
I-1
I0
tbI00
S'\xbc\xbb\xbb\xbb\xbb\xbb\xeb?qG\xdc\x11w\xc4\xed?qG\xdc\x11w\xc4\xed?'
tbaa(lp4173
I1028
ag4
(g5
g6
NtRp4174
(dp4175
S'warm_start'
p4176
I00
sS'base_estimator'
p4177
g4
(g11
g6
NtRp4178
(dp4179
S'presort'
p4180
I00
sS'splitter'
p4181
S'random'
p4182
sS'min_impurity_decrease'
p4183
F0
sS'min_impurity_split'
p4184
NsS'min_samples_leaf'
p4185
I1
sS'max_features'
p4186
S'auto'
p4187
sS'random_state'
p4188
NsS'criterion'
p4189
S'gini'
p4190
sS'min_weight_fraction_leaf'
p4191
F0
sS'max_leaf_nodes'
p4192
NsS'min_samples_split'
p4193
I2
sg28
g29
sS'max_depth'
p4194
NsS'class_weight'
p4195
NsbsS'n_jobs'
p4196
Nsg4183
F0
sS'verbose'
p4197
I0
sg4192
NsS'bootstrap'
p4198
I00
sS'oob_score'
p4199
I00
sg4185
I1
sS'n_estimators'
p4200
I100
sg4193
I2
sg4191
F0
sg4189
g4190
sS'estimator_params'
p4201
(S'criterion'
S'max_depth'
S'min_samples_split'
S'min_samples_leaf'
S'min_weight_fraction_leaf'
S'max_features'
S'max_leaf_nodes'
S'min_impurity_decrease'
S'min_impurity_split'
S'random_state'
tp4202
sg4188
Nsg4184
Nsg4186
g4187
sg28
g29
sg4194
Nsg4195
Nsbag39
(g40
(I0
tS'b'
tRp4203
(I1
(I3
tg42
(S'f8'
I0
I1
tRp4204
(I3
S'<'
NNNI-1
I-1
I0
tbI00
S'\xba\xe8\xa2\x8b.\xba\xd8?t\xd1E\x17]t\xe1?G\xdc\x11w\xc4\x1d\xe1?'
tbaa(lp4205
I1033
ag4
(g5
g6
NtRp4206
(dp4207
S'warm_start'
p4208
I00
sS'base_estimator'
p4209
g4
(g11
g6
NtRp4210
(dp4211
S'presort'
p4212
I00
sS'splitter'
p4213
S'random'
p4214
sS'min_impurity_decrease'
p4215
F0
sS'min_impurity_split'
p4216
NsS'min_samples_leaf'
p4217
I1
sS'max_features'
p4218
S'auto'
p4219
sS'random_state'
p4220
NsS'criterion'
p4221
S'gini'
p4222
sS'min_weight_fraction_leaf'
p4223
F0
sS'max_leaf_nodes'
p4224
NsS'min_samples_split'
p4225
I2
sg28
g29
sS'max_depth'
p4226
NsS'class_weight'
p4227
NsbsS'n_jobs'
p4228
Nsg4215
F0
sS'verbose'
p4229
I0
sg4224
NsS'bootstrap'
p4230
I00
sS'oob_score'
p4231
I00
sg4217
I1
sS'n_estimators'
p4232
I100
sg4225
I2
sg4223
F0
sg4221
g4222
sS'estimator_params'
p4233
(S'criterion'
S'max_depth'
S'min_samples_split'
S'min_samples_leaf'
S'min_weight_fraction_leaf'
S'max_features'
S'max_leaf_nodes'
S'min_impurity_decrease'
S'min_impurity_split'
S'random_state'
tp4234
sg4220
Nsg4216
Nsg4218
g4219
sg28
g29
sg4226
Nsg4227
Nsbag39
(g40
(I0
tS'b'
tRp4235
(I1
(I3
tg42
(S'f8'
I0
I1
tRp4236
(I3
S'<'
NNNI-1
I-1
I0
tbI00
S'[\xb0\x05[\xb0\x05\xeb?\x12w\xc4\x1dqG\xec?A_\xd0\x17\xf4\x05\xed?'
tbaa(lp4237
I178
ag4
(g5
g6
NtRp4238
(dp4239
S'warm_start'
p4240
I00
sS'base_estimator'
p4241
g4
(g11
g6
NtRp4242
(dp4243
S'presort'
p4244
I00
sS'splitter'
p4245
S'random'
p4246
sS'min_impurity_decrease'
p4247
F0
sS'min_impurity_split'
p4248
NsS'min_samples_leaf'
p4249
I1
sS'max_features'
p4250
S'auto'
p4251
sS'random_state'
p4252
NsS'criterion'
p4253
S'gini'
p4254
sS'min_weight_fraction_leaf'
p4255
F0
sS'max_leaf_nodes'
p4256
NsS'min_samples_split'
p4257
I2
sg28
g29
sS'max_depth'
p4258
NsS'class_weight'
p4259
NsbsS'n_jobs'
p4260
Nsg4247
F0
sS'verbose'
p4261
I0
sg4256
NsS'bootstrap'
p4262
I00
sS'oob_score'
p4263
I00
sg4249
I1
sS'n_estimators'
p4264
I100
sg4257
I2
sg4255
F0
sg4253
g4254
sS'estimator_params'
p4265
(S'criterion'
S'max_depth'
S'min_samples_split'
S'min_samples_leaf'
S'min_weight_fraction_leaf'
S'max_features'
S'max_leaf_nodes'
S'min_impurity_decrease'
S'min_impurity_split'
S'random_state'
tp4266
sg4252
Nsg4248
Nsg4250
g4251
sg28
g29
sg4258
Nsg4259
Nsbag39
(g40
(I0
tS'b'
tRp4267
(I1
(I3
tg42
(S'f8'
I0
I1
tRp4268
(I3
S'<'
NNNI-1
I-1
I0
tbI00
S't\xd1E\x17]t\xe9?/\xba\xe8\xa2\x8b.\xea?\x83\xbe\xa0/\xe8\x0b\xea?'
tbaa(lp4269
I659
ag4
(g5
g6
NtRp4270
(dp4271
S'warm_start'
p4272
I00
sS'base_estimator'
p4273
g4
(g11
g6
NtRp4274
(dp4275
S'presort'
p4276
I00
sS'splitter'
p4277
S'random'
p4278
sS'min_impurity_decrease'
p4279
F0
sS'min_impurity_split'
p4280
NsS'min_samples_leaf'
p4281
I1
sS'max_features'
p4282
S'auto'
p4283
sS'random_state'
p4284
NsS'criterion'
p4285
S'gini'
p4286
sS'min_weight_fraction_leaf'
p4287
F0
sS'max_leaf_nodes'
p4288
NsS'min_samples_split'
p4289
I2
sg28
g29
sS'max_depth'
p4290
NsS'class_weight'
p4291
NsbsS'n_jobs'
p4292
Nsg4279
F0
sS'verbose'
p4293
I0
sg4288
NsS'bootstrap'
p4294
I00
sS'oob_score'
p4295
I00
sg4281
I1
sS'n_estimators'
p4296
I100
sg4289
I2
sg4287
F0
sg4285
g4286
sS'estimator_params'
p4297
(S'criterion'
S'max_depth'
S'min_samples_split'
S'min_samples_leaf'
S'min_weight_fraction_leaf'
S'max_features'
S'max_leaf_nodes'
S'min_impurity_decrease'
S'min_impurity_split'
S'random_state'
tp4298
sg4284
Nsg4280
Nsg4282
g4283
sg28
g29
sg4290
Nsg4291
Nsbag39
(g40
(I0
tS'b'
tRp4299
(I1
(I3
tg42
(S'f8'
I0
I1
tRp4300
(I3
S'<'
NNNI-1
I-1
I0
tbI00
S'\xba\xe8\xa2\x8b.\xba\xe8?\x00\x00\x00\x00\x00\x00\xe8?$\xee\x88;\xe2\x8e\xe8?'
tbaa(lp4301
I35
ag4
(g5
g6
NtRp4302
(dp4303
S'warm_start'
p4304
I00
sS'base_estimator'
p4305
g4
(g11
g6
NtRp4306
(dp4307
S'presort'
p4308
I00
sS'splitter'
p4309
S'random'
p4310
sS'min_impurity_decrease'
p4311
F0
sS'min_impurity_split'
p4312
NsS'min_samples_leaf'
p4313
I1
sS'max_features'
p4314
S'auto'
p4315
sS'random_state'
p4316
NsS'criterion'
p4317
S'gini'
p4318
sS'min_weight_fraction_leaf'
p4319
F0
sS'max_leaf_nodes'
p4320
NsS'min_samples_split'
p4321
I2
sg28
g29
sS'max_depth'
p4322
NsS'class_weight'
p4323
NsbsS'n_jobs'
p4324
Nsg4311
F0
sS'verbose'
p4325
I0
sg4320
NsS'bootstrap'
p4326
I00
sS'oob_score'
p4327
I00
sg4313
I1
sS'n_estimators'
p4328
I100
sg4321
I2
sg4319
F0
sg4317
g4318
sS'estimator_params'
p4329
(S'criterion'
S'max_depth'
S'min_samples_split'
S'min_samples_leaf'
S'min_weight_fraction_leaf'
S'max_features'
S'max_leaf_nodes'
S'min_impurity_decrease'
S'min_impurity_split'
S'random_state'
tp4330
sg4316
Nsg4312
Nsg4314
g4315
sg28
g29
sg4322
Nsg4323
Nsbag39
(g40
(I0
tS'b'
tRp4331
(I1
(I3
tg42
(S'f8'
I0
I1
tRp4332
(I3
S'<'
NNNI-1
I-1
I0
tbI00
S']t\xd1E\x17]\xec?]t\xd1E\x17]\xec?\x12w\xc4\x1dqG\xec?'
tbaa(lp4333
I650
ag4
(g5
g6
NtRp4334
(dp4335
S'warm_start'
p4336
I00
sS'base_estimator'
p4337
g4
(g11
g6
NtRp4338
(dp4339
S'presort'
p4340
I00
sS'splitter'
p4341
S'random'
p4342
sS'min_impurity_decrease'
p4343
F0
sS'min_impurity_split'
p4344
NsS'min_samples_leaf'
p4345
I1
sS'max_features'
p4346
S'auto'
p4347
sS'random_state'
p4348
NsS'criterion'
p4349
S'gini'
p4350
sS'min_weight_fraction_leaf'
p4351
F0
sS'max_leaf_nodes'
p4352
NsS'min_samples_split'
p4353
I2
sg28
g29
sS'max_depth'
p4354
NsS'class_weight'
p4355
NsbsS'n_jobs'
p4356
Nsg4343
F0
sS'verbose'
p4357
I0
sg4352
NsS'bootstrap'
p4358
I00
sS'oob_score'
p4359
I00
sg4345
I1
sS'n_estimators'
p4360
I100
sg4353
I2
sg4351
F0
sg4349
g4350
sS'estimator_params'
p4361
(S'criterion'
S'max_depth'
S'min_samples_split'
S'min_samples_leaf'
S'min_weight_fraction_leaf'
S'max_features'
S'max_leaf_nodes'
S'min_impurity_decrease'
S'min_impurity_split'
S'random_state'
tp4362
sg4348
Nsg4344
Nsg4346
g4347
sg28
g29
sg4354
Nsg4355
Nsbag39
(g40
(I0
tS'b'
tRp4363
(I1
(I3
tg42
(S'f8'
I0
I1
tRp4364
(I3
S'<'
NNNI-1
I-1
I0
tbI00
S'\x1c\xc7q\x1c\xc7q\xec?\x12w\xc4\x1dqG\xec?A_\xd0\x17\xf4\x05\xed?'
tbaa(lp4365
I342
ag4
(g5
g6
NtRp4366
(dp4367
S'warm_start'
p4368
I00
sS'base_estimator'
p4369
g4
(g11
g6
NtRp4370
(dp4371
S'presort'
p4372
I00
sS'splitter'
p4373
S'random'
p4374
sS'min_impurity_decrease'
p4375
F0
sS'min_impurity_split'
p4376
NsS'min_samples_leaf'
p4377
I1
sS'max_features'
p4378
S'auto'
p4379
sS'random_state'
p4380
NsS'criterion'
p4381
S'gini'
p4382
sS'min_weight_fraction_leaf'
p4383
F0
sS'max_leaf_nodes'
p4384
NsS'min_samples_split'
p4385
I2
sg28
g29
sS'max_depth'
p4386
NsS'class_weight'
p4387
NsbsS'n_jobs'
p4388
Nsg4375
F0
sS'verbose'
p4389
I0
sg4384
NsS'bootstrap'
p4390
I00
sS'oob_score'
p4391
I00
sg4377
I1
sS'n_estimators'
p4392
I100
sg4385
I2
sg4383
F0
sg4381
g4382
sS'estimator_params'
p4393
(S'criterion'
S'max_depth'
S'min_samples_split'
S'min_samples_leaf'
S'min_weight_fraction_leaf'
S'max_features'
S'max_leaf_nodes'
S'min_impurity_decrease'
S'min_impurity_split'
S'random_state'
tp4394
sg4380
Nsg4376
Nsg4378
g4379
sg28
g29
sg4386
Nsg4387
Nsbag39
(g40
(I0
tS'b'
tRp4395
(I1
(I3
tg42
(S'f8'
I0
I1
tRp4396
(I3
S'<'
NNNI-1
I-1
I0
tbI00
S'\xa3\x8b.\xba\xe8\xa2\xeb?\xe9\xa2\x8b.\xba\xe8\xea?\xe2\x8e\xb8#\xee\x88\xeb?'
tbaa(lp4397
I460
ag4
(g5
g6
NtRp4398
(dp4399
S'warm_start'
p4400
I00
sS'base_estimator'
p4401
g4
(g11
g6
NtRp4402
(dp4403
S'presort'
p4404
I00
sS'splitter'
p4405
S'random'
p4406
sS'min_impurity_decrease'
p4407
F0
sS'min_impurity_split'
p4408
NsS'min_samples_leaf'
p4409
I1
sS'max_features'
p4410
S'auto'
p4411
sS'random_state'
p4412
NsS'criterion'
p4413
S'gini'
p4414
sS'min_weight_fraction_leaf'
p4415
F0
sS'max_leaf_nodes'
p4416
NsS'min_samples_split'
p4417
I2
sg28
g29
sS'max_depth'
p4418
NsS'class_weight'
p4419
NsbsS'n_jobs'
p4420
Nsg4407
F0
sS'verbose'
p4421
I0
sg4416
NsS'bootstrap'
p4422
I00
sS'oob_score'
p4423
I00
sg4409
I1
sS'n_estimators'
p4424
I100
sg4417
I2
sg4415
F0
sg4413
g4414
sS'estimator_params'
p4425
(S'criterion'
S'max_depth'
S'min_samples_split'
S'min_samples_leaf'
S'min_weight_fraction_leaf'
S'max_features'
S'max_leaf_nodes'
S'min_impurity_decrease'
S'min_impurity_split'
S'random_state'
tp4426
sg4412
Nsg4408
Nsg4410
g4411
sg28
g29
sg4418
Nsg4419
Nsbag39
(g40
(I0
tS'b'
tRp4427
(I1
(I3
tg42
(S'f8'
I0
I1
tRp4428
(I3
S'<'
NNNI-1
I-1
I0
tbI00
S'F\x17]t\xd1E\xe7?F\x17]t\xd1E\xe7?\xc4\x1dqG\xdc\x11\xe7?'
tbaa(lp4429
I401
ag4
(g5
g6
NtRp4430
(dp4431
S'warm_start'
p4432
I00
sS'base_estimator'
p4433
g4
(g11
g6
NtRp4434
(dp4435
S'presort'
p4436
I00
sS'splitter'
p4437
S'random'
p4438
sS'min_impurity_decrease'
p4439
F0
sS'min_impurity_split'
p4440
NsS'min_samples_leaf'
p4441
I1
sS'max_features'
p4442
S'auto'
p4443
sS'random_state'
p4444
NsS'criterion'
p4445
S'gini'
p4446
sS'min_weight_fraction_leaf'
p4447
F0
sS'max_leaf_nodes'
p4448
NsS'min_samples_split'
p4449
I2
sg28
g29
sS'max_depth'
p4450
NsS'class_weight'
p4451
NsbsS'n_jobs'
p4452
Nsg4439
F0
sS'verbose'
p4453
I0
sg4448
NsS'bootstrap'
p4454
I00
sS'oob_score'
p4455
I00
sg4441
I1
sS'n_estimators'
p4456
I100
sg4449
I2
sg4447
F0
sg4445
g4446
sS'estimator_params'
p4457
(S'criterion'
S'max_depth'
S'min_samples_split'
S'min_samples_leaf'
S'min_weight_fraction_leaf'
S'max_features'
S'max_leaf_nodes'
S'min_impurity_decrease'
S'min_impurity_split'
S'random_state'
tp4458
sg4444
Nsg4440
Nsg4442
g4443
sg28
g29
sg4450
Nsg4451
Nsbag39
(g40
(I0
tS'b'
tRp4459
(I1
(I3
tg42
(S'f8'
I0
I1
tRp4460
(I3
S'<'
NNNI-1
I-1
I0
tbI00
S'\xa3\x8b.\xba\xe8\xa2\xe3?\xa3\x8b.\xba\xe8\xa2\xe3?eMYS\xd6\x94\xe5?'
tbaa(lp4461
I1067
ag4
(g5
g6
NtRp4462
(dp4463
S'warm_start'
p4464
I00
sS'base_estimator'
p4465
g4
(g11
g6
NtRp4466
(dp4467
S'presort'
p4468
I00
sS'splitter'
p4469
S'random'
p4470
sS'min_impurity_decrease'
p4471
F0
sS'min_impurity_split'
p4472
NsS'min_samples_leaf'
p4473
I1
sS'max_features'
p4474
S'auto'
p4475
sS'random_state'
p4476
NsS'criterion'
p4477
S'gini'
p4478
sS'min_weight_fraction_leaf'
p4479
F0
sS'max_leaf_nodes'
p4480
NsS'min_samples_split'
p4481
I2
sg28
g29
sS'max_depth'
p4482
NsS'class_weight'
p4483
NsbsS'n_jobs'
p4484
Nsg4471
F0
sS'verbose'
p4485
I0
sg4480
NsS'bootstrap'
p4486
I00
sS'oob_score'
p4487
I00
sg4473
I1
sS'n_estimators'
p4488
I100
sg4481
I2
sg4479
F0
sg4477
g4478
sS'estimator_params'
p4489
(S'criterion'
S'max_depth'
S'min_samples_split'
S'min_samples_leaf'
S'min_weight_fraction_leaf'
S'max_features'
S'max_leaf_nodes'
S'min_impurity_decrease'
S'min_impurity_split'
S'random_state'
tp4490
sg4476
Nsg4472
Nsg4474
g4475
sg28
g29
sg4482
Nsg4483
Nsbag39
(g40
(I0
tS'b'
tRp4491
(I1
(I3
tg42
(S'f8'
I0
I1
tRp4492
(I3
S'<'
NNNI-1
I-1
I0
tbI00
S'\xa3\x8b.\xba\xe8\xa2\xeb?]t\xd1E\x17]\xec?qG\xdc\x11w\xc4\xed?'
tbaa(lp4493
I186
ag4
(g5
g6
NtRp4494
(dp4495
S'warm_start'
p4496
I00
sS'base_estimator'
p4497
g4
(g11
g6
NtRp4498
(dp4499
S'presort'
p4500
I00
sS'splitter'
p4501
S'random'
p4502
sS'min_impurity_decrease'
p4503
F0
sS'min_impurity_split'
p4504
NsS'min_samples_leaf'
p4505
I1
sS'max_features'
p4506
S'auto'
p4507
sS'random_state'
p4508
NsS'criterion'
p4509
S'gini'
p4510
sS'min_weight_fraction_leaf'
p4511
F0
sS'max_leaf_nodes'
p4512
NsS'min_samples_split'
p4513
I2
sg28
g29
sS'max_depth'
p4514
NsS'class_weight'
p4515
NsbsS'n_jobs'
p4516
Nsg4503
F0
sS'verbose'
p4517
I0
sg4512
NsS'bootstrap'
p4518
I00
sS'oob_score'
p4519
I00
sg4505
I1
sS'n_estimators'
p4520
I100
sg4513
I2
sg4511
F0
sg4509
g4510
sS'estimator_params'
p4521
(S'criterion'
S'max_depth'
S'min_samples_split'
S'min_samples_leaf'
S'min_weight_fraction_leaf'
S'max_features'
S'max_leaf_nodes'
S'min_impurity_decrease'
S'min_impurity_split'
S'random_state'
tp4522
sg4508
Nsg4504
Nsg4506
g4507
sg28
g29
sg4514
Nsg4515
Nsbag39
(g40
(I0
tS'b'
tRp4523
(I1
(I3
tg42
(S'f8'
I0
I1
tRp4524
(I3
S'<'
NNNI-1
I-1
I0
tbI00
S'F\x17]t\xd1E\xe7?]t\xd1E\x17]\xe4?\xc4\x1dqG\xdc\x11\xe7?'
tbaa(lp4525
I950
ag4
(g5
g6
NtRp4526
(dp4527
S'warm_start'
p4528
I00
sS'base_estimator'
p4529
g4
(g11
g6
NtRp4530
(dp4531
S'presort'
p4532
I00
sS'splitter'
p4533
S'random'
p4534
sS'min_impurity_decrease'
p4535
F0
sS'min_impurity_split'
p4536
NsS'min_samples_leaf'
p4537
I1
sS'max_features'
p4538
S'auto'
p4539
sS'random_state'
p4540
NsS'criterion'
p4541
S'gini'
p4542
sS'min_weight_fraction_leaf'
p4543
F0
sS'max_leaf_nodes'
p4544
NsS'min_samples_split'
p4545
I2
sg28
g29
sS'max_depth'
p4546
NsS'class_weight'
p4547
NsbsS'n_jobs'
p4548
Nsg4535
F0
sS'verbose'
p4549
I0
sg4544
NsS'bootstrap'
p4550
I00
sS'oob_score'
p4551
I00
sg4537
I1
sS'n_estimators'
p4552
I100
sg4545
I2
sg4543
F0
sg4541
g4542
sS'estimator_params'
p4553
(S'criterion'
S'max_depth'
S'min_samples_split'
S'min_samples_leaf'
S'min_weight_fraction_leaf'
S'max_features'
S'max_leaf_nodes'
S'min_impurity_decrease'
S'min_impurity_split'
S'random_state'
tp4554
sg4540
Nsg4536
Nsg4538
g4539
sg28
g29
sg4546
Nsg4547
Nsbag39
(g40
(I0
tS'b'
tRp4555
(I1
(I3
tg42
(S'f8'
I0
I1
tRp4556
(I3
S'<'
NNNI-1
I-1
I0
tbI00
S'[\xb0\x05[\xb0\x05\xeb?\xe2\x8e\xb8#\xee\x88\xeb?\xe2\x8e\xb8#\xee\x88\xeb?'
tbaa(lp4557
I324
ag4
(g5
g6
NtRp4558
(dp4559
S'warm_start'
p4560
I00
sS'base_estimator'
p4561
g4
(g11
g6
NtRp4562
(dp4563
S'presort'
p4564
I00
sS'splitter'
p4565
S'random'
p4566
sS'min_impurity_decrease'
p4567
F0
sS'min_impurity_split'
p4568
NsS'min_samples_leaf'
p4569
I1
sS'max_features'
p4570
S'auto'
p4571
sS'random_state'
p4572
NsS'criterion'
p4573
S'gini'
p4574
sS'min_weight_fraction_leaf'
p4575
F0
sS'max_leaf_nodes'
p4576
NsS'min_samples_split'
p4577
I2
sg28
g29
sS'max_depth'
p4578
NsS'class_weight'
p4579
NsbsS'n_jobs'
p4580
Nsg4567
F0
sS'verbose'
p4581
I0
sg4576
NsS'bootstrap'
p4582
I00
sS'oob_score'
p4583
I00
sg4569
I1
sS'n_estimators'
p4584
I100
sg4577
I2
sg4575
F0
sg4573
g4574
sS'estimator_params'
p4585
(S'criterion'
S'max_depth'
S'min_samples_split'
S'min_samples_leaf'
S'min_weight_fraction_leaf'
S'max_features'
S'max_leaf_nodes'
S'min_impurity_decrease'
S'min_impurity_split'
S'random_state'
tp4586
sg4572
Nsg4568
Nsg4570
g4571
sg28
g29
sg4578
Nsg4579
Nsbag39
(g40
(I0
tS'b'
tRp4587
(I1
(I3
tg42
(S'f8'
I0
I1
tRp4588
(I3
S'<'
NNNI-1
I-1
I0
tbI00
S'\x17]t\xd1E\x17\xed?\x17]t\xd1E\x17\xed?A_\xd0\x17\xf4\x05\xed?'
tbaa(lp4589
I452
ag4
(g5
g6
NtRp4590
(dp4591
S'warm_start'
p4592
I00
sS'base_estimator'
p4593
g4
(g11
g6
NtRp4594
(dp4595
S'presort'
p4596
I00
sS'splitter'
p4597
S'random'
p4598
sS'min_impurity_decrease'
p4599
F0
sS'min_impurity_split'
p4600
NsS'min_samples_leaf'
p4601
I1
sS'max_features'
p4602
S'auto'
p4603
sS'random_state'
p4604
NsS'criterion'
p4605
S'gini'
p4606
sS'min_weight_fraction_leaf'
p4607
F0
sS'max_leaf_nodes'
p4608
NsS'min_samples_split'
p4609
I2
sg28
g29
sS'max_depth'
p4610
NsS'class_weight'
p4611
NsbsS'n_jobs'
p4612
Nsg4599
F0
sS'verbose'
p4613
I0
sg4608
NsS'bootstrap'
p4614
I00
sS'oob_score'
p4615
I00
sg4601
I1
sS'n_estimators'
p4616
I100
sg4609
I2
sg4607
F0
sg4605
g4606
sS'estimator_params'
p4617
(S'criterion'
S'max_depth'
S'min_samples_split'
S'min_samples_leaf'
S'min_weight_fraction_leaf'
S'max_features'
S'max_leaf_nodes'
S'min_impurity_decrease'
S'min_impurity_split'
S'random_state'
tp4618
sg4604
Nsg4600
Nsg4602
g4603
sg28
g29
sg4610
Nsg4611
Nsbag39
(g40
(I0
tS'b'
tRp4619
(I1
(I3
tg42
(S'f8'
I0
I1
tRp4620
(I3
S'<'
NNNI-1
I-1
I0
tbI00
S'\x9a\x99\x99\x99\x99\x99\xe9?\x83\xbe\xa0/\xe8\x0b\xea?\xb3\xa6\xac)k\xca\xea?'
tbaa(lp4621
I629
ag4
(g5
g6
NtRp4622
(dp4623
S'warm_start'
p4624
I00
sS'base_estimator'
p4625
g4
(g11
g6
NtRp4626
(dp4627
S'presort'
p4628
I00
sS'splitter'
p4629
S'random'
p4630
sS'min_impurity_decrease'
p4631
F0
sS'min_impurity_split'
p4632
NsS'min_samples_leaf'
p4633
I1
sS'max_features'
p4634
S'auto'
p4635
sS'random_state'
p4636
NsS'criterion'
p4637
S'gini'
p4638
sS'min_weight_fraction_leaf'
p4639
F0
sS'max_leaf_nodes'
p4640
NsS'min_samples_split'
p4641
I2
sg28
g29
sS'max_depth'
p4642
NsS'class_weight'
p4643
NsbsS'n_jobs'
p4644
Nsg4631
F0
sS'verbose'
p4645
I0
sg4640
NsS'bootstrap'
p4646
I00
sS'oob_score'
p4647
I00
sg4633
I1
sS'n_estimators'
p4648
I100
sg4641
I2
sg4639
F0
sg4637
g4638
sS'estimator_params'
p4649
(S'criterion'
S'max_depth'
S'min_samples_split'
S'min_samples_leaf'
S'min_weight_fraction_leaf'
S'max_features'
S'max_leaf_nodes'
S'min_impurity_decrease'
S'min_impurity_split'
S'random_state'
tp4650
sg4636
Nsg4632
Nsg4634
g4635
sg28
g29
sg4642
Nsg4643
Nsbag39
(g40
(I0
tS'b'
tRp4651
(I1
(I3
tg42
(S'f8'
I0
I1
tRp4652
(I3
S'<'
NNNI-1
I-1
I0
tbI00
S"\xd2'}\xd2'}\xe2?6eMYS\xd6\xe4?\xa7\xac)k\xca\x9a\xe2?"
tbaa(lp4653
I84
ag4
(g5
g6
NtRp4654
(dp4655
S'warm_start'
p4656
I00
sS'base_estimator'
p4657
g4
(g11
g6
NtRp4658
(dp4659
S'presort'
p4660
I00
sS'splitter'
p4661
S'random'
p4662
sS'min_impurity_decrease'
p4663
F0
sS'min_impurity_split'
p4664
NsS'min_samples_leaf'
p4665
I1
sS'max_features'
p4666
S'auto'
p4667
sS'random_state'
p4668
NsS'criterion'
p4669
S'gini'
p4670
sS'min_weight_fraction_leaf'
p4671
F0
sS'max_leaf_nodes'
p4672
NsS'min_samples_split'
p4673
I2
sg28
g29
sS'max_depth'
p4674
NsS'class_weight'
p4675
NsbsS'n_jobs'
p4676
Nsg4663
F0
sS'verbose'
p4677
I0
sg4672
NsS'bootstrap'
p4678
I00
sS'oob_score'
p4679
I00
sg4665
I1
sS'n_estimators'
p4680
I100
sg4673
I2
sg4671
F0
sg4669
g4670
sS'estimator_params'
p4681
(S'criterion'
S'max_depth'
S'min_samples_split'
S'min_samples_leaf'
S'min_weight_fraction_leaf'
S'max_features'
S'max_leaf_nodes'
S'min_impurity_decrease'
S'min_impurity_split'
S'random_state'
tp4682
sg4668
Nsg4664
Nsg4666
g4667
sg28
g29
sg4674
Nsg4675
Nsbag39
(g40
(I0
tS'b'
tRp4683
(I1
(I3
tg42
(S'f8'
I0
I1
tRp4684
(I3
S'<'
NNNI-1
I-1
I0
tbI00
S'\xa3\x8b.\xba\xe8\xa2\xeb?\xe9\xa2\x8b.\xba\xe8\xea?\x12w\xc4\x1dqG\xec?'
tbaa(lp4685
I576
ag4
(g5
g6
NtRp4686
(dp4687
S'warm_start'
p4688
I00
sS'base_estimator'
p4689
g4
(g11
g6
NtRp4690
(dp4691
S'presort'
p4692
I00
sS'splitter'
p4693
S'random'
p4694
sS'min_impurity_decrease'
p4695
F0
sS'min_impurity_split'
p4696
NsS'min_samples_leaf'
p4697
I1
sS'max_features'
p4698
S'auto'
p4699
sS'random_state'
p4700
NsS'criterion'
p4701
S'gini'
p4702
sS'min_weight_fraction_leaf'
p4703
F0
sS'max_leaf_nodes'
p4704
NsS'min_samples_split'
p4705
I2
sg28
g29
sS'max_depth'
p4706
NsS'class_weight'
p4707
NsbsS'n_jobs'
p4708
Nsg4695
F0
sS'verbose'
p4709
I0
sg4704
NsS'bootstrap'
p4710
I00
sS'oob_score'
p4711
I00
sg4697
I1
sS'n_estimators'
p4712
I100
sg4705
I2
sg4703
F0
sg4701
g4702
sS'estimator_params'
p4713
(S'criterion'
S'max_depth'
S'min_samples_split'
S'min_samples_leaf'
S'min_weight_fraction_leaf'
S'max_features'
S'max_leaf_nodes'
S'min_impurity_decrease'
S'min_impurity_split'
S'random_state'
tp4714
sg4700
Nsg4696
Nsg4698
g4699
sg28
g29
sg4706
Nsg4707
Nsbag39
(g40
(I0
tS'b'
tRp4715
(I1
(I3
tg42
(S'f8'
I0
I1
tRp4716
(I3
S'<'
NNNI-1
I-1
I0
tbI00
S'\xd1E\x17]t\xd1\xed?\xd1E\x17]t\xd1\xed?\xa1/\xe8\x0b\xfa\x82\xee?'
tbaa(lp4717
I270
ag4
(g5
g6
NtRp4718
(dp4719
S'warm_start'
p4720
I00
sS'base_estimator'
p4721
g4
(g11
g6
NtRp4722
(dp4723
S'presort'
p4724
I00
sS'splitter'
p4725
S'random'
p4726
sS'min_impurity_decrease'
p4727
F0
sS'min_impurity_split'
p4728
NsS'min_samples_leaf'
p4729
I1
sS'max_features'
p4730
S'auto'
p4731
sS'random_state'
p4732
NsS'criterion'
p4733
S'gini'
p4734
sS'min_weight_fraction_leaf'
p4735
F0
sS'max_leaf_nodes'
p4736
NsS'min_samples_split'
p4737
I2
sg28
g29
sS'max_depth'
p4738
NsS'class_weight'
p4739
NsbsS'n_jobs'
p4740
Nsg4727
F0
sS'verbose'
p4741
I0
sg4736
NsS'bootstrap'
p4742
I00
sS'oob_score'
p4743
I00
sg4729
I1
sS'n_estimators'
p4744
I100
sg4737
I2
sg4735
F0
sg4733
g4734
sS'estimator_params'
p4745
(S'criterion'
S'max_depth'
S'min_samples_split'
S'min_samples_leaf'
S'min_weight_fraction_leaf'
S'max_features'
S'max_leaf_nodes'
S'min_impurity_decrease'
S'min_impurity_split'
S'random_state'
tp4746
sg4732
Nsg4728
Nsg4730
g4731
sg28
g29
sg4738
Nsg4739
Nsbag39
(g40
(I0
tS'b'
tRp4747
(I1
(I3
tg42
(S'f8'
I0
I1
tRp4748
(I3
S'<'
NNNI-1
I-1
I0
tbI00
S'\xe9\xa2\x8b.\xba\xe8\xea?\xa3\x8b.\xba\xe8\xa2\xeb?\x12w\xc4\x1dqG\xec?'
tbaa(lp4749
I555
ag4
(g5
g6
NtRp4750
(dp4751
S'warm_start'
p4752
I00
sS'base_estimator'
p4753
g4
(g11
g6
NtRp4754
(dp4755
S'presort'
p4756
I00
sS'splitter'
p4757
S'random'
p4758
sS'min_impurity_decrease'
p4759
F0
sS'min_impurity_split'
p4760
NsS'min_samples_leaf'
p4761
I1
sS'max_features'
p4762
S'auto'
p4763
sS'random_state'
p4764
NsS'criterion'
p4765
S'gini'
p4766
sS'min_weight_fraction_leaf'
p4767
F0
sS'max_leaf_nodes'
p4768
NsS'min_samples_split'
p4769
I2
sg28
g29
sS'max_depth'
p4770
NsS'class_weight'
p4771
NsbsS'n_jobs'
p4772
Nsg4759
F0
sS'verbose'
p4773
I0
sg4768
NsS'bootstrap'
p4774
I00
sS'oob_score'
p4775
I00
sg4761
I1
sS'n_estimators'
p4776
I100
sg4769
I2
sg4767
F0
sg4765
g4766
sS'estimator_params'
p4777
(S'criterion'
S'max_depth'
S'min_samples_split'
S'min_samples_leaf'
S'min_weight_fraction_leaf'
S'max_features'
S'max_leaf_nodes'
S'min_impurity_decrease'
S'min_impurity_split'
S'random_state'
tp4778
sg4764
Nsg4760
Nsg4762
g4763
sg28
g29
sg4770
Nsg4771
Nsbag39
(g40
(I0
tS'b'
tRp4779
(I1
(I3
tg42
(S'f8'
I0
I1
tRp4780
(I3
S'<'
NNNI-1
I-1
I0
tbI00
S'\x9f\xf4I\x9f\xf4I\xdf?\xa7\xac)k\xca\x9a\xe2?\x18\xf4\x05}A_\xe0?'
tbaa(lp4781
I917
ag4
(g5
g6
NtRp4782
(dp4783
S'warm_start'
p4784
I00
sS'base_estimator'
p4785
g4
(g11
g6
NtRp4786
(dp4787
S'presort'
p4788
I00
sS'splitter'
p4789
S'random'
p4790
sS'min_impurity_decrease'
p4791
F0
sS'min_impurity_split'
p4792
NsS'min_samples_leaf'
p4793
I1
sS'max_features'
p4794
S'auto'
p4795
sS'random_state'
p4796
NsS'criterion'
p4797
S'gini'
p4798
sS'min_weight_fraction_leaf'
p4799
F0
sS'max_leaf_nodes'
p4800
NsS'min_samples_split'
p4801
I2
sg28
g29
sS'max_depth'
p4802
NsS'class_weight'
p4803
NsbsS'n_jobs'
p4804
Nsg4791
F0
sS'verbose'
p4805
I0
sg4800
NsS'bootstrap'
p4806
I00
sS'oob_score'
p4807
I00
sg4793
I1
sS'n_estimators'
p4808
I100
sg4801
I2
sg4799
F0
sg4797
g4798
sS'estimator_params'
p4809
(S'criterion'
S'max_depth'
S'min_samples_split'
S'min_samples_leaf'
S'min_weight_fraction_leaf'
S'max_features'
S'max_leaf_nodes'
S'min_impurity_decrease'
S'min_impurity_split'
S'random_state'
tp4810
sg4796
Nsg4792
Nsg4794
g4795
sg28
g29
sg4802
Nsg4803
Nsbag39
(g40
(I0
tS'b'
tRp4811
(I1
(I3
tg42
(S'f8'
I0
I1
tRp4812
(I3
S'<'
NNNI-1
I-1
I0
tbI00
S'\x8c.\xba\xe8\xa2\x8b\xe6?F\x17]t\xd1E\xe7?$\xee\x88;\xe2\x8e\xe8?'
tbaaa.