(lp1
(lp2
I746
accopy_reg
_reconstructor
p3
(csklearn.ensemble.forest
ExtraTreesClassifier
p4
c__builtin__
object
p5
NtRp6
(dp7
S'warm_start'
p8
I00
sS'base_estimator'
p9
g3
(csklearn.tree.tree
ExtraTreeClassifier
p10
g5
NtRp11
(dp12
S'presort'
p13
I00
sS'splitter'
p14
S'random'
p15
sS'min_impurity_decrease'
p16
F0
sS'min_impurity_split'
p17
NsS'min_samples_leaf'
p18
I1
sS'max_features'
p19
S'auto'
p20
sS'random_state'
p21
NsS'criterion'
p22
S'gini'
p23
sS'min_weight_fraction_leaf'
p24
F0
sS'max_leaf_nodes'
p25
NsS'min_samples_split'
p26
I2
sS'_sklearn_version'
p27
S'0.20.4'
p28
sS'max_depth'
p29
NsS'class_weight'
p30
NsbsS'n_jobs'
p31
Nsg16
F0
sS'verbose'
p32
I0
sg25
NsS'bootstrap'
p33
I00
sS'oob_score'
p34
I00
sg18
I1
sS'n_estimators'
p35
I100
sg26
I2
sg24
F0
sg22
g23
sS'estimator_params'
p36
(S'criterion'
S'max_depth'
S'min_samples_split'
S'min_samples_leaf'
S'min_weight_fraction_leaf'
S'max_features'
S'max_leaf_nodes'
S'min_impurity_decrease'
S'min_impurity_split'
S'random_state'
tp37
sg21
Nsg17
Nsg19
g20
sg27
g28
sg29
Nsg30
Nsbacnumpy.core.multiarray
_reconstruct
p38
(cnumpy
ndarray
p39
(I0
tS'b'
tRp40
(I1
(I3
tcnumpy
dtype
p41
(S'f8'
I0
I1
tRp42
(I3
S'<'
NNNI-1
I-1
I0
tbI00
S'\x9a\x99\x99\x99\x99\x99\xe9?\xe2\x8e\xb8#\xee\x88\xeb?$\xee\x88;\xe2\x8e\xe8?'
tbaa(lp43
I757
ag3
(g4
g5
NtRp44
(dp45
S'warm_start'
p46
I00
sS'base_estimator'
p47
g3
(g10
g5
NtRp48
(dp49
S'presort'
p50
I00
sS'splitter'
p51
S'random'
p52
sS'min_impurity_decrease'
p53
F0
sS'min_impurity_split'
p54
NsS'min_samples_leaf'
p55
I1
sS'max_features'
p56
S'auto'
p57
sS'random_state'
p58
NsS'criterion'
p59
S'gini'
p60
sS'min_weight_fraction_leaf'
p61
F0
sS'max_leaf_nodes'
p62
NsS'min_samples_split'
p63
I2
sg27
g28
sS'max_depth'
p64
NsS'class_weight'
p65
NsbsS'n_jobs'
p66
Nsg53
F0
sS'verbose'
p67
I0
sg62
NsS'bootstrap'
p68
I00
sS'oob_score'
p69
I00
sg55
I1
sS'n_estimators'
p70
I100
sg63
I2
sg61
F0
sg59
g60
sS'estimator_params'
p71
(S'criterion'
S'max_depth'
S'min_samples_split'
S'min_samples_leaf'
S'min_weight_fraction_leaf'
S'max_features'
S'max_leaf_nodes'
S'min_impurity_decrease'
S'min_impurity_split'
S'random_state'
tp72
sg58
Nsg54
Nsg56
g57
sg27
g28
sg64
Nsg65
Nsbag38
(g39
(I0
tS'b'
tRp73
(I1
(I3
tg41
(S'f8'
I0
I1
tRp74
(I3
S'<'
NNNI-1
I-1
I0
tbI00
S'\x17l\xc1\x16l\xc1\xe6?\xc4\x1dqG\xdc\x11\xe7?6eMYS\xd6\xe4?'
tbaa(lp75
I75
ag3
(g4
g5
NtRp76
(dp77
S'warm_start'
p78
I00
sS'base_estimator'
p79
g3
(g10
g5
NtRp80
(dp81
S'presort'
p82
I00
sS'splitter'
p83
S'random'
p84
sS'min_impurity_decrease'
p85
F0
sS'min_impurity_split'
p86
NsS'min_samples_leaf'
p87
I1
sS'max_features'
p88
S'auto'
p89
sS'random_state'
p90
NsS'criterion'
p91
S'gini'
p92
sS'min_weight_fraction_leaf'
p93
F0
sS'max_leaf_nodes'
p94
NsS'min_samples_split'
p95
I2
sg27
g28
sS'max_depth'
p96
NsS'class_weight'
p97
NsbsS'n_jobs'
p98
Nsg85
F0
sS'verbose'
p99
I0
sg94
NsS'bootstrap'
p100
I00
sS'oob_score'
p101
I00
sg87
I1
sS'n_estimators'
p102
I100
sg95
I2
sg93
F0
sg91
g92
sS'estimator_params'
p103
(S'criterion'
S'max_depth'
S'min_samples_split'
S'min_samples_leaf'
S'min_weight_fraction_leaf'
S'max_features'
S'max_leaf_nodes'
S'min_impurity_decrease'
S'min_impurity_split'
S'random_state'
tp104
sg90
Nsg86
Nsg88
g89
sg27
g28
sg96
Nsg97
Nsbag38
(g39
(I0
tS'b'
tRp105
(I1
(I3
tg41
(S'f8'
I0
I1
tRp106
(I3
S'<'
NNNI-1
I-1
I0
tbI00
S'333333\xe3?w\xc4\x1dqG\xdc\xe1?\xd6\x945eMY\xe3?'
tbaa(lp107
I476
ag3
(g4
g5
NtRp108
(dp109
S'warm_start'
p110
I00
sS'base_estimator'
p111
g3
(g10
g5
NtRp112
(dp113
S'presort'
p114
I00
sS'splitter'
p115
S'random'
p116
sS'min_impurity_decrease'
p117
F0
sS'min_impurity_split'
p118
NsS'min_samples_leaf'
p119
I1
sS'max_features'
p120
S'auto'
p121
sS'random_state'
p122
NsS'criterion'
p123
S'gini'
p124
sS'min_weight_fraction_leaf'
p125
F0
sS'max_leaf_nodes'
p126
NsS'min_samples_split'
p127
I2
sg27
g28
sS'max_depth'
p128
NsS'class_weight'
p129
NsbsS'n_jobs'
p130
Nsg117
F0
sS'verbose'
p131
I0
sg126
NsS'bootstrap'
p132
I00
sS'oob_score'
p133
I00
sg119
I1
sS'n_estimators'
p134
I100
sg127
I2
sg125
F0
sg123
g124
sS'estimator_params'
p135
(S'criterion'
S'max_depth'
S'min_samples_split'
S'min_samples_leaf'
S'min_weight_fraction_leaf'
S'max_features'
S'max_leaf_nodes'
S'min_impurity_decrease'
S'min_impurity_split'
S'random_state'
tp136
sg122
Nsg118
Nsg120
g121
sg27
g28
sg128
Nsg129
Nsbag38
(g39
(I0
tS'b'
tRp137
(I1
(I3
tg41
(S'f8'
I0
I1
tRp138
(I3
S'<'
NNNI-1
I-1
I0
tbI00
S'\x17]t\xd1E\x17\xe5?\xe9\xa2\x8b.\xba\xe8\xe2?\xa7\xac)k\xca\x9a\xe2?'
tbaa(lp139
I67
ag3
(g4
g5
NtRp140
(dp141
S'warm_start'
p142
I00
sS'base_estimator'
p143
g3
(g10
g5
NtRp144
(dp145
S'presort'
p146
I00
sS'splitter'
p147
S'random'
p148
sS'min_impurity_decrease'
p149
F0
sS'min_impurity_split'
p150
NsS'min_samples_leaf'
p151
I1
sS'max_features'
p152
S'auto'
p153
sS'random_state'
p154
NsS'criterion'
p155
S'gini'
p156
sS'min_weight_fraction_leaf'
p157
F0
sS'max_leaf_nodes'
p158
NsS'min_samples_split'
p159
I2
sg27
g28
sS'max_depth'
p160
NsS'class_weight'
p161
NsbsS'n_jobs'
p162
Nsg149
F0
sS'verbose'
p163
I0
sg158
NsS'bootstrap'
p164
I00
sS'oob_score'
p165
I00
sg151
I1
sS'n_estimators'
p166
I100
sg159
I2
sg157
F0
sg155
g156
sS'estimator_params'
p167
(S'criterion'
S'max_depth'
S'min_samples_split'
S'min_samples_leaf'
S'min_weight_fraction_leaf'
S'max_features'
S'max_leaf_nodes'
S'min_impurity_decrease'
S'min_impurity_split'
S'random_state'
tp168
sg154
Nsg150
Nsg152
g153
sg27
g28
sg160
Nsg161
Nsbag38
(g39
(I0
tS'b'
tRp169
(I1
(I3
tg41
(S'f8'
I0
I1
tRp170
(I3
S'<'
NNNI-1
I-1
I0
tbI00
S'\x00\x00\x00\x00\x00\x00\xe8?\xba\xe8\xa2\x8b.\xba\xe8?$\xee\x88;\xe2\x8e\xe8?'
tbaa(lp171
I217
ag3
(g4
g5
NtRp172
(dp173
S'warm_start'
p174
I00
sS'base_estimator'
p175
g3
(g10
g5
NtRp176
(dp177
S'presort'
p178
I00
sS'splitter'
p179
S'random'
p180
sS'min_impurity_decrease'
p181
F0
sS'min_impurity_split'
p182
NsS'min_samples_leaf'
p183
I1
sS'max_features'
p184
S'auto'
p185
sS'random_state'
p186
NsS'criterion'
p187
S'gini'
p188
sS'min_weight_fraction_leaf'
p189
F0
sS'max_leaf_nodes'
p190
NsS'min_samples_split'
p191
I2
sg27
g28
sS'max_depth'
p192
NsS'class_weight'
p193
NsbsS'n_jobs'
p194
Nsg181
F0
sS'verbose'
p195
I0
sg190
NsS'bootstrap'
p196
I00
sS'oob_score'
p197
I00
sg183
I1
sS'n_estimators'
p198
I100
sg191
I2
sg189
F0
sg187
g188
sS'estimator_params'
p199
(S'criterion'
S'max_depth'
S'min_samples_split'
S'min_samples_leaf'
S'min_weight_fraction_leaf'
S'max_features'
S'max_leaf_nodes'
S'min_impurity_decrease'
S'min_impurity_split'
S'random_state'
tp200
sg186
Nsg182
Nsg184
g185
sg27
g28
sg192
Nsg193
Nsbag38
(g39
(I0
tS'b'
tRp201
(I1
(I3
tg41
(S'f8'
I0
I1
tRp202
(I3
S'<'
NNNI-1
I-1
I0
tbI00
S't\xd1E\x17]t\xe9?\x00\x00\x00\x00\x00\x00\xe8?\x955eMYS\xe6?'
tbaa(lp203
I889
ag3
(g4
g5
NtRp204
(dp205
S'warm_start'
p206
I00
sS'base_estimator'
p207
g3
(g10
g5
NtRp208
(dp209
S'presort'
p210
I00
sS'splitter'
p211
S'random'
p212
sS'min_impurity_decrease'
p213
F0
sS'min_impurity_split'
p214
NsS'min_samples_leaf'
p215
I1
sS'max_features'
p216
S'auto'
p217
sS'random_state'
p218
NsS'criterion'
p219
S'gini'
p220
sS'min_weight_fraction_leaf'
p221
F0
sS'max_leaf_nodes'
p222
NsS'min_samples_split'
p223
I2
sg27
g28
sS'max_depth'
p224
NsS'class_weight'
p225
NsbsS'n_jobs'
p226
Nsg213
F0
sS'verbose'
p227
I0
sg222
NsS'bootstrap'
p228
I00
sS'oob_score'
p229
I00
sg215
I1
sS'n_estimators'
p230
I100
sg223
I2
sg221
F0
sg219
g220
sS'estimator_params'
p231
(S'criterion'
S'max_depth'
S'min_samples_split'
S'min_samples_leaf'
S'min_weight_fraction_leaf'
S'max_features'
S'max_leaf_nodes'
S'min_impurity_decrease'
S'min_impurity_split'
S'random_state'
tp232
sg218
Nsg214
Nsg216
g217
sg27
g28
sg224
Nsg225
Nsbag38
(g39
(I0
tS'b'
tRp233
(I1
(I3
tg41
(S'f8'
I0
I1
tRp234
(I3
S'<'
NNNI-1
I-1
I0
tbI00
S't\xd1E\x17]t\xe1?\xba\xe8\xa2\x8b.\xba\xe0?w\xc4\x1dqG\xdc\xe1?'
tbaa(lp235
I1094
ag3
(g4
g5
NtRp236
(dp237
S'warm_start'
p238
I00
sS'base_estimator'
p239
g3
(g10
g5
NtRp240
(dp241
S'presort'
p242
I00
sS'splitter'
p243
S'random'
p244
sS'min_impurity_decrease'
p245
F0
sS'min_impurity_split'
p246
NsS'min_samples_leaf'
p247
I1
sS'max_features'
p248
S'auto'
p249
sS'random_state'
p250
NsS'criterion'
p251
S'gini'
p252
sS'min_weight_fraction_leaf'
p253
F0
sS'max_leaf_nodes'
p254
NsS'min_samples_split'
p255
I2
sg27
g28
sS'max_depth'
p256
NsS'class_weight'
p257
NsbsS'n_jobs'
p258
Nsg245
F0
sS'verbose'
p259
I0
sg254
NsS'bootstrap'
p260
I00
sS'oob_score'
p261
I00
sg247
I1
sS'n_estimators'
p262
I100
sg255
I2
sg253
F0
sg251
g252
sS'estimator_params'
p263
(S'criterion'
S'max_depth'
S'min_samples_split'
S'min_samples_leaf'
S'min_weight_fraction_leaf'
S'max_features'
S'max_leaf_nodes'
S'min_impurity_decrease'
S'min_impurity_split'
S'random_state'
tp264
sg250
Nsg246
Nsg248
g249
sg27
g28
sg256
Nsg257
Nsbag38
(g39
(I0
tS'b'
tRp265
(I1
(I3
tg41
(S'f8'
I0
I1
tRp266
(I3
S'<'
NNNI-1
I-1
I0
tbI00
S'\xd8\x82-\xd8\x82-\xe8?$\xee\x88;\xe2\x8e\xe8?S\xd6\x945eM\xe9?'
tbaa(lp267
I203
ag3
(g4
g5
NtRp268
(dp269
S'warm_start'
p270
I00
sS'base_estimator'
p271
g3
(g10
g5
NtRp272
(dp273
S'presort'
p274
I00
sS'splitter'
p275
S'random'
p276
sS'min_impurity_decrease'
p277
F0
sS'min_impurity_split'
p278
NsS'min_samples_leaf'
p279
I1
sS'max_features'
p280
S'auto'
p281
sS'random_state'
p282
NsS'criterion'
p283
S'gini'
p284
sS'min_weight_fraction_leaf'
p285
F0
sS'max_leaf_nodes'
p286
NsS'min_samples_split'
p287
I2
sg27
g28
sS'max_depth'
p288
NsS'class_weight'
p289
NsbsS'n_jobs'
p290
Nsg277
F0
sS'verbose'
p291
I0
sg286
NsS'bootstrap'
p292
I00
sS'oob_score'
p293
I00
sg279
I1
sS'n_estimators'
p294
I100
sg287
I2
sg285
F0
sg283
g284
sS'estimator_params'
p295
(S'criterion'
S'max_depth'
S'min_samples_split'
S'min_samples_leaf'
S'min_weight_fraction_leaf'
S'max_features'
S'max_leaf_nodes'
S'min_impurity_decrease'
S'min_impurity_split'
S'random_state'
tp296
sg282
Nsg278
Nsg280
g281
sg27
g28
sg288
Nsg289
Nsbag38
(g39
(I0
tS'b'
tRp297
(I1
(I3
tg41
(S'f8'
I0
I1
tRp298
(I3
S'<'
NNNI-1
I-1
I0
tbI00
S'\xfa\xa4O\xfa\xa4O\xea?\x83\xbe\xa0/\xe8\x0b\xea?\xe2\x8e\xb8#\xee\x88\xeb?'
tbaa(lp299
I112
ag3
(g4
g5
NtRp300
(dp301
S'warm_start'
p302
I00
sS'base_estimator'
p303
g3
(g10
g5
NtRp304
(dp305
S'presort'
p306
I00
sS'splitter'
p307
S'random'
p308
sS'min_impurity_decrease'
p309
F0
sS'min_impurity_split'
p310
NsS'min_samples_leaf'
p311
I1
sS'max_features'
p312
S'auto'
p313
sS'random_state'
p314
NsS'criterion'
p315
S'gini'
p316
sS'min_weight_fraction_leaf'
p317
F0
sS'max_leaf_nodes'
p318
NsS'min_samples_split'
p319
I2
sg27
g28
sS'max_depth'
p320
NsS'class_weight'
p321
NsbsS'n_jobs'
p322
Nsg309
F0
sS'verbose'
p323
I0
sg318
NsS'bootstrap'
p324
I00
sS'oob_score'
p325
I00
sg311
I1
sS'n_estimators'
p326
I100
sg319
I2
sg317
F0
sg315
g316
sS'estimator_params'
p327
(S'criterion'
S'max_depth'
S'min_samples_split'
S'min_samples_leaf'
S'min_weight_fraction_leaf'
S'max_features'
S'max_leaf_nodes'
S'min_impurity_decrease'
S'min_impurity_split'
S'random_state'
tp328
sg314
Nsg310
Nsg312
g313
sg27
g28
sg320
Nsg321
Nsbag38
(g39
(I0
tS'b'
tRp329
(I1
(I3
tg41
(S'f8'
I0
I1
tRp330
(I3
S'<'
NNNI-1
I-1
I0
tbI00
S'\xd1E\x17]t\xd1\xe5?\x17]t\xd1E\x17\xe5?6eMYS\xd6\xe4?'
tbaa(lp331
I1046
ag3
(g4
g5
NtRp332
(dp333
S'warm_start'
p334
I00
sS'base_estimator'
p335
g3
(g10
g5
NtRp336
(dp337
S'presort'
p338
I00
sS'splitter'
p339
S'random'
p340
sS'min_impurity_decrease'
p341
F0
sS'min_impurity_split'
p342
NsS'min_samples_leaf'
p343
I1
sS'max_features'
p344
S'auto'
p345
sS'random_state'
p346
NsS'criterion'
p347
S'gini'
p348
sS'min_weight_fraction_leaf'
p349
F0
sS'max_leaf_nodes'
p350
NsS'min_samples_split'
p351
I2
sg27
g28
sS'max_depth'
p352
NsS'class_weight'
p353
NsbsS'n_jobs'
p354
Nsg341
F0
sS'verbose'
p355
I0
sg350
NsS'bootstrap'
p356
I00
sS'oob_score'
p357
I00
sg343
I1
sS'n_estimators'
p358
I100
sg351
I2
sg349
F0
sg347
g348
sS'estimator_params'
p359
(S'criterion'
S'max_depth'
S'min_samples_split'
S'min_samples_leaf'
S'min_weight_fraction_leaf'
S'max_features'
S'max_leaf_nodes'
S'min_impurity_decrease'
S'min_impurity_split'
S'random_state'
tp360
sg346
Nsg342
Nsg344
g345
sg27
g28
sg352
Nsg353
Nsbag38
(g39
(I0
tS'b'
tRp361
(I1
(I3
tg41
(S'f8'
I0
I1
tRp362
(I3
S'<'
NNNI-1
I-1
I0
tbI00
S'/\xba\xe8\xa2\x8b.\xea?/\xba\xe8\xa2\x8b.\xea?\x83\xbe\xa0/\xe8\x0b\xea?'
tbaa(lp363
I752
ag3
(g4
g5
NtRp364
(dp365
S'warm_start'
p366
I00
sS'base_estimator'
p367
g3
(g10
g5
NtRp368
(dp369
S'presort'
p370
I00
sS'splitter'
p371
S'random'
p372
sS'min_impurity_decrease'
p373
F0
sS'min_impurity_split'
p374
NsS'min_samples_leaf'
p375
I1
sS'max_features'
p376
S'auto'
p377
sS'random_state'
p378
NsS'criterion'
p379
S'gini'
p380
sS'min_weight_fraction_leaf'
p381
F0
sS'max_leaf_nodes'
p382
NsS'min_samples_split'
p383
I2
sg27
g28
sS'max_depth'
p384
NsS'class_weight'
p385
NsbsS'n_jobs'
p386
Nsg373
F0
sS'verbose'
p387
I0
sg382
NsS'bootstrap'
p388
I00
sS'oob_score'
p389
I00
sg375
I1
sS'n_estimators'
p390
I100
sg383
I2
sg381
F0
sg379
g380
sS'estimator_params'
p391
(S'criterion'
S'max_depth'
S'min_samples_split'
S'min_samples_leaf'
S'min_weight_fraction_leaf'
S'max_features'
S'max_leaf_nodes'
S'min_impurity_decrease'
S'min_impurity_split'
S'random_state'
tp392
sg378
Nsg374
Nsg376
g377
sg27
g28
sg384
Nsg385
Nsbag38
(g39
(I0
tS'b'
tRp393
(I1
(I3
tg41
(S'f8'
I0
I1
tRp394
(I3
S'<'
NNNI-1
I-1
I0
tbI00
S'\xbc\xbb\xbb\xbb\xbb\xbb\xeb?\x12w\xc4\x1dqG\xec?\xb3\xa6\xac)k\xca\xea?'
tbaa(lp395
I321
ag3
(g4
g5
NtRp396
(dp397
S'warm_start'
p398
I00
sS'base_estimator'
p399
g3
(g10
g5
NtRp400
(dp401
S'presort'
p402
I00
sS'splitter'
p403
S'random'
p404
sS'min_impurity_decrease'
p405
F0
sS'min_impurity_split'
p406
NsS'min_samples_leaf'
p407
I1
sS'max_features'
p408
S'auto'
p409
sS'random_state'
p410
NsS'criterion'
p411
S'gini'
p412
sS'min_weight_fraction_leaf'
p413
F0
sS'max_leaf_nodes'
p414
NsS'min_samples_split'
p415
I2
sg27
g28
sS'max_depth'
p416
NsS'class_weight'
p417
NsbsS'n_jobs'
p418
Nsg405
F0
sS'verbose'
p419
I0
sg414
NsS'bootstrap'
p420
I00
sS'oob_score'
p421
I00
sg407
I1
sS'n_estimators'
p422
I100
sg415
I2
sg413
F0
sg411
g412
sS'estimator_params'
p423
(S'criterion'
S'max_depth'
S'min_samples_split'
S'min_samples_leaf'
S'min_weight_fraction_leaf'
S'max_features'
S'max_leaf_nodes'
S'min_impurity_decrease'
S'min_impurity_split'
S'random_state'
tp424
sg410
Nsg406
Nsg408
g409
sg27
g28
sg416
Nsg417
Nsbag38
(g39
(I0
tS'b'
tRp425
(I1
(I3
tg41
(S'f8'
I0
I1
tRp426
(I3
S'<'
NNNI-1
I-1
I0
tbI00
S'\x00\x00\x00\x00\x00\x00\xe8?\xd1E\x17]t\xd1\xe5?\x955eMYS\xe6?'
tbaa(lp427
I71
ag3
(g4
g5
NtRp428
(dp429
S'warm_start'
p430
I00
sS'base_estimator'
p431
g3
(g10
g5
NtRp432
(dp433
S'presort'
p434
I00
sS'splitter'
p435
S'random'
p436
sS'min_impurity_decrease'
p437
F0
sS'min_impurity_split'
p438
NsS'min_samples_leaf'
p439
I1
sS'max_features'
p440
S'auto'
p441
sS'random_state'
p442
NsS'criterion'
p443
S'gini'
p444
sS'min_weight_fraction_leaf'
p445
F0
sS'max_leaf_nodes'
p446
NsS'min_samples_split'
p447
I2
sg27
g28
sS'max_depth'
p448
NsS'class_weight'
p449
NsbsS'n_jobs'
p450
Nsg437
F0
sS'verbose'
p451
I0
sg446
NsS'bootstrap'
p452
I00
sS'oob_score'
p453
I00
sg439
I1
sS'n_estimators'
p454
I100
sg447
I2
sg445
F0
sg443
g444
sS'estimator_params'
p455
(S'criterion'
S'max_depth'
S'min_samples_split'
S'min_samples_leaf'
S'min_weight_fraction_leaf'
S'max_features'
S'max_leaf_nodes'
S'min_impurity_decrease'
S'min_impurity_split'
S'random_state'
tp456
sg442
Nsg438
Nsg440
g441
sg27
g28
sg448
Nsg449
Nsbag38
(g39
(I0
tS'b'
tRp457
(I1
(I3
tg41
(S'f8'
I0
I1
tRp458
(I3
S'<'
NNNI-1
I-1
I0
tbI00
S'\xa3\x8b.\xba\xe8\xa2\xe3?]t\xd1E\x17]\xe4?\x955eMYS\xe6?'
tbaa(lp459
I483
ag3
(g4
g5
NtRp460
(dp461
S'warm_start'
p462
I00
sS'base_estimator'
p463
g3
(g10
g5
NtRp464
(dp465
S'presort'
p466
I00
sS'splitter'
p467
S'random'
p468
sS'min_impurity_decrease'
p469
F0
sS'min_impurity_split'
p470
NsS'min_samples_leaf'
p471
I1
sS'max_features'
p472
S'auto'
p473
sS'random_state'
p474
NsS'criterion'
p475
S'gini'
p476
sS'min_weight_fraction_leaf'
p477
F0
sS'max_leaf_nodes'
p478
NsS'min_samples_split'
p479
I2
sg27
g28
sS'max_depth'
p480
NsS'class_weight'
p481
NsbsS'n_jobs'
p482
Nsg469
F0
sS'verbose'
p483
I0
sg478
NsS'bootstrap'
p484
I00
sS'oob_score'
p485
I00
sg471
I1
sS'n_estimators'
p486
I100
sg479
I2
sg477
F0
sg475
g476
sS'estimator_params'
p487
(S'criterion'
S'max_depth'
S'min_samples_split'
S'min_samples_leaf'
S'min_weight_fraction_leaf'
S'max_features'
S'max_leaf_nodes'
S'min_impurity_decrease'
S'min_impurity_split'
S'random_state'
tp488
sg474
Nsg470
Nsg472
g473
sg27
g28
sg480
Nsg481
Nsbag38
(g39
(I0
tS'b'
tRp489
(I1
(I3
tg41
(S'f8'
I0
I1
tRp490
(I3
S'<'
NNNI-1
I-1
I0
tbI00
S'\xba\xe8\xa2\x8b.\xba\xe0?]t\xd1E\x17]\xe4?eMYS\xd6\x94\xe5?'
tbaa(lp491
I1049
ag3
(g4
g5
NtRp492
(dp493
S'warm_start'
p494
I00
sS'base_estimator'
p495
g3
(g10
g5
NtRp496
(dp497
S'presort'
p498
I00
sS'splitter'
p499
S'random'
p500
sS'min_impurity_decrease'
p501
F0
sS'min_impurity_split'
p502
NsS'min_samples_leaf'
p503
I1
sS'max_features'
p504
S'auto'
p505
sS'random_state'
p506
NsS'criterion'
p507
S'gini'
p508
sS'min_weight_fraction_leaf'
p509
F0
sS'max_leaf_nodes'
p510
NsS'min_samples_split'
p511
I2
sg27
g28
sS'max_depth'
p512
NsS'class_weight'
p513
NsbsS'n_jobs'
p514
Nsg501
F0
sS'verbose'
p515
I0
sg510
NsS'bootstrap'
p516
I00
sS'oob_score'
p517
I00
sg503
I1
sS'n_estimators'
p518
I100
sg511
I2
sg509
F0
sg507
g508
sS'estimator_params'
p519
(S'criterion'
S'max_depth'
S'min_samples_split'
S'min_samples_leaf'
S'min_weight_fraction_leaf'
S'max_features'
S'max_leaf_nodes'
S'min_impurity_decrease'
S'min_impurity_split'
S'random_state'
tp520
sg506
Nsg502
Nsg504
g505
sg27
g28
sg512
Nsg513
Nsbag38
(g39
(I0
tS'b'
tRp521
(I1
(I3
tg41
(S'f8'
I0
I1
tRp522
(I3
S'<'
NNNI-1
I-1
I0
tbI00
S'\xfa\xa4O\xfa\xa4O\xea?\xb3\xa6\xac)k\xca\xea?\xb3\xa6\xac)k\xca\xea?'
tbaa(lp523
I453
ag3
(g4
g5
NtRp524
(dp525
S'warm_start'
p526
I00
sS'base_estimator'
p527
g3
(g10
g5
NtRp528
(dp529
S'presort'
p530
I00
sS'splitter'
p531
S'random'
p532
sS'min_impurity_decrease'
p533
F0
sS'min_impurity_split'
p534
NsS'min_samples_leaf'
p535
I1
sS'max_features'
p536
S'auto'
p537
sS'random_state'
p538
NsS'criterion'
p539
S'gini'
p540
sS'min_weight_fraction_leaf'
p541
F0
sS'max_leaf_nodes'
p542
NsS'min_samples_split'
p543
I2
sg27
g28
sS'max_depth'
p544
NsS'class_weight'
p545
NsbsS'n_jobs'
p546
Nsg533
F0
sS'verbose'
p547
I0
sg542
NsS'bootstrap'
p548
I00
sS'oob_score'
p549
I00
sg535
I1
sS'n_estimators'
p550
I100
sg543
I2
sg541
F0
sg539
g540
sS'estimator_params'
p551
(S'criterion'
S'max_depth'
S'min_samples_split'
S'min_samples_leaf'
S'min_weight_fraction_leaf'
S'max_features'
S'max_leaf_nodes'
S'min_impurity_decrease'
S'min_impurity_split'
S'random_state'
tp552
sg538
Nsg534
Nsg536
g537
sg27
g28
sg544
Nsg545
Nsbag38
(g39
(I0
tS'b'
tRp553
(I1
(I3
tg41
(S'f8'
I0
I1
tRp554
(I3
S'<'
NNNI-1
I-1
I0
tbI00
S'\x1c\xc7q\x1c\xc7q\xec?\xe2\x8e\xb8#\xee\x88\xeb?\x12w\xc4\x1dqG\xec?'
tbaa(lp555
I1078
ag3
(g4
g5
NtRp556
(dp557
S'warm_start'
p558
I00
sS'base_estimator'
p559
g3
(g10
g5
NtRp560
(dp561
S'presort'
p562
I00
sS'splitter'
p563
S'random'
p564
sS'min_impurity_decrease'
p565
F0
sS'min_impurity_split'
p566
NsS'min_samples_leaf'
p567
I1
sS'max_features'
p568
S'auto'
p569
sS'random_state'
p570
NsS'criterion'
p571
S'gini'
p572
sS'min_weight_fraction_leaf'
p573
F0
sS'max_leaf_nodes'
p574
NsS'min_samples_split'
p575
I2
sg27
g28
sS'max_depth'
p576
NsS'class_weight'
p577
NsbsS'n_jobs'
p578
Nsg565
F0
sS'verbose'
p579
I0
sg574
NsS'bootstrap'
p580
I00
sS'oob_score'
p581
I00
sg567
I1
sS'n_estimators'
p582
I100
sg575
I2
sg573
F0
sg571
g572
sS'estimator_params'
p583
(S'criterion'
S'max_depth'
S'min_samples_split'
S'min_samples_leaf'
S'min_weight_fraction_leaf'
S'max_features'
S'max_leaf_nodes'
S'min_impurity_decrease'
S'min_impurity_split'
S'random_state'
tp584
sg570
Nsg566
Nsg568
g569
sg27
g28
sg576
Nsg577
Nsbag38
(g39
(I0
tS'b'
tRp585
(I1
(I3
tg41
(S'f8'
I0
I1
tRp586
(I3
S'<'
NNNI-1
I-1
I0
tbI00
S'\x17]t\xd1E\x17\xed?]t\xd1E\x17]\xec?\x12w\xc4\x1dqG\xec?'
tbaa(lp587
I947
ag3
(g4
g5
NtRp588
(dp589
S'warm_start'
p590
I00
sS'base_estimator'
p591
g3
(g10
g5
NtRp592
(dp593
S'presort'
p594
I00
sS'splitter'
p595
S'random'
p596
sS'min_impurity_decrease'
p597
F0
sS'min_impurity_split'
p598
NsS'min_samples_leaf'
p599
I1
sS'max_features'
p600
S'auto'
p601
sS'random_state'
p602
NsS'criterion'
p603
S'gini'
p604
sS'min_weight_fraction_leaf'
p605
F0
sS'max_leaf_nodes'
p606
NsS'min_samples_split'
p607
I2
sg27
g28
sS'max_depth'
p608
NsS'class_weight'
p609
NsbsS'n_jobs'
p610
Nsg597
F0
sS'verbose'
p611
I0
sg606
NsS'bootstrap'
p612
I00
sS'oob_score'
p613
I00
sg599
I1
sS'n_estimators'
p614
I100
sg607
I2
sg605
F0
sg603
g604
sS'estimator_params'
p615
(S'criterion'
S'max_depth'
S'min_samples_split'
S'min_samples_leaf'
S'min_weight_fraction_leaf'
S'max_features'
S'max_leaf_nodes'
S'min_impurity_decrease'
S'min_impurity_split'
S'random_state'
tp616
sg602
Nsg598
Nsg600
g601
sg27
g28
sg608
Nsg609
Nsbag38
(g39
(I0
tS'b'
tRp617
(I1
(I3
tg41
(S'f8'
I0
I1
tRp618
(I3
S'<'
NNNI-1
I-1
I0
tbI00
S'\xba\xe8\xa2\x8b.\xba\xe8?\xba\xe8\xa2\x8b.\xba\xe8?$\xee\x88;\xe2\x8e\xe8?'
tbaa(lp619
I563
ag3
(g4
g5
NtRp620
(dp621
S'warm_start'
p622
I00
sS'base_estimator'
p623
g3
(g10
g5
NtRp624
(dp625
S'presort'
p626
I00
sS'splitter'
p627
S'random'
p628
sS'min_impurity_decrease'
p629
F0
sS'min_impurity_split'
p630
NsS'min_samples_leaf'
p631
I1
sS'max_features'
p632
S'auto'
p633
sS'random_state'
p634
NsS'criterion'
p635
S'gini'
p636
sS'min_weight_fraction_leaf'
p637
F0
sS'max_leaf_nodes'
p638
NsS'min_samples_split'
p639
I2
sg27
g28
sS'max_depth'
p640
NsS'class_weight'
p641
NsbsS'n_jobs'
p642
Nsg629
F0
sS'verbose'
p643
I0
sg638
NsS'bootstrap'
p644
I00
sS'oob_score'
p645
I00
sg631
I1
sS'n_estimators'
p646
I100
sg639
I2
sg637
F0
sg635
g636
sS'estimator_params'
p647
(S'criterion'
S'max_depth'
S'min_samples_split'
S'min_samples_leaf'
S'min_weight_fraction_leaf'
S'max_features'
S'max_leaf_nodes'
S'min_impurity_decrease'
S'min_impurity_split'
S'random_state'
tp648
sg634
Nsg630
Nsg632
g633
sg27
g28
sg640
Nsg641
Nsbag38
(g39
(I0
tS'b'
tRp649
(I1
(I3
tg41
(S'f8'
I0
I1
tRp650
(I3
S'<'
NNNI-1
I-1
I0
tbI00
S'\x17]t\xd1E\x17\xe5?\xe9\xa2\x8b.\xba\xe8\xe2?\xd0\x17\xf4\x05}A\xdf?'
tbaa(lp651
I683
ag3
(g4
g5
NtRp652
(dp653
S'warm_start'
p654
I00
sS'base_estimator'
p655
g3
(g10
g5
NtRp656
(dp657
S'presort'
p658
I00
sS'splitter'
p659
S'random'
p660
sS'min_impurity_decrease'
p661
F0
sS'min_impurity_split'
p662
NsS'min_samples_leaf'
p663
I1
sS'max_features'
p664
S'auto'
p665
sS'random_state'
p666
NsS'criterion'
p667
S'gini'
p668
sS'min_weight_fraction_leaf'
p669
F0
sS'max_leaf_nodes'
p670
NsS'min_samples_split'
p671
I2
sg27
g28
sS'max_depth'
p672
NsS'class_weight'
p673
NsbsS'n_jobs'
p674
Nsg661
F0
sS'verbose'
p675
I0
sg670
NsS'bootstrap'
p676
I00
sS'oob_score'
p677
I00
sg663
I1
sS'n_estimators'
p678
I100
sg671
I2
sg669
F0
sg667
g668
sS'estimator_params'
p679
(S'criterion'
S'max_depth'
S'min_samples_split'
S'min_samples_leaf'
S'min_weight_fraction_leaf'
S'max_features'
S'max_leaf_nodes'
S'min_impurity_decrease'
S'min_impurity_split'
S'random_state'
tp680
sg666
Nsg662
Nsg664
g665
sg27
g28
sg672
Nsg673
Nsbag38
(g39
(I0
tS'b'
tRp681
(I1
(I3
tg41
(S'f8'
I0
I1
tRp682
(I3
S'<'
NNNI-1
I-1
I0
tbI00
S'\xb6`\x0b\xb6`\x0b\xe6?\xc4\x1dqG\xdc\x11\xe7?\xc4\x1dqG\xdc\x11\xe7?'
tbaa(lp683
I635
ag3
(g4
g5
NtRp684
(dp685
S'warm_start'
p686
I00
sS'base_estimator'
p687
g3
(g10
g5
NtRp688
(dp689
S'presort'
p690
I00
sS'splitter'
p691
S'random'
p692
sS'min_impurity_decrease'
p693
F0
sS'min_impurity_split'
p694
NsS'min_samples_leaf'
p695
I1
sS'max_features'
p696
S'auto'
p697
sS'random_state'
p698
NsS'criterion'
p699
S'gini'
p700
sS'min_weight_fraction_leaf'
p701
F0
sS'max_leaf_nodes'
p702
NsS'min_samples_split'
p703
I2
sg27
g28
sS'max_depth'
p704
NsS'class_weight'
p705
NsbsS'n_jobs'
p706
Nsg693
F0
sS'verbose'
p707
I0
sg702
NsS'bootstrap'
p708
I00
sS'oob_score'
p709
I00
sg695
I1
sS'n_estimators'
p710
I100
sg703
I2
sg701
F0
sg699
g700
sS'estimator_params'
p711
(S'criterion'
S'max_depth'
S'min_samples_split'
S'min_samples_leaf'
S'min_weight_fraction_leaf'
S'max_features'
S'max_leaf_nodes'
S'min_impurity_decrease'
S'min_impurity_split'
S'random_state'
tp712
sg698
Nsg694
Nsg696
g697
sg27
g28
sg704
Nsg705
Nsbag38
(g39
(I0
tS'b'
tRp713
(I1
(I3
tg41
(S'f8'
I0
I1
tRp714
(I3
S'<'
NNNI-1
I-1
I0
tbI00
S']t\xd1E\x17]\xec?]t\xd1E\x17]\xec?A_\xd0\x17\xf4\x05\xed?'
tbaa(lp715
I600
ag3
(g4
g5
NtRp716
(dp717
S'warm_start'
p718
I00
sS'base_estimator'
p719
g3
(g10
g5
NtRp720
(dp721
S'presort'
p722
I00
sS'splitter'
p723
S'random'
p724
sS'min_impurity_decrease'
p725
F0
sS'min_impurity_split'
p726
NsS'min_samples_leaf'
p727
I1
sS'max_features'
p728
S'auto'
p729
sS'random_state'
p730
NsS'criterion'
p731
S'gini'
p732
sS'min_weight_fraction_leaf'
p733
F0
sS'max_leaf_nodes'
p734
NsS'min_samples_split'
p735
I2
sg27
g28
sS'max_depth'
p736
NsS'class_weight'
p737
NsbsS'n_jobs'
p738
Nsg725
F0
sS'verbose'
p739
I0
sg734
NsS'bootstrap'
p740
I00
sS'oob_score'
p741
I00
sg727
I1
sS'n_estimators'
p742
I100
sg735
I2
sg733
F0
sg731
g732
sS'estimator_params'
p743
(S'criterion'
S'max_depth'
S'min_samples_split'
S'min_samples_leaf'
S'min_weight_fraction_leaf'
S'max_features'
S'max_leaf_nodes'
S'min_impurity_decrease'
S'min_impurity_split'
S'random_state'
tp744
sg730
Nsg726
Nsg728
g729
sg27
g28
sg736
Nsg737
Nsbag38
(g39
(I0
tS'b'
tRp745
(I1
(I3
tg41
(S'f8'
I0
I1
tRp746
(I3
S'<'
NNNI-1
I-1
I0
tbI00
S'F\x17]t\xd1E\xe7?\x00\x00\x00\x00\x00\x00\xe8?\xf4\x05}A_\xd0\xe7?'
tbaa(lp747
I707
ag3
(g4
g5
NtRp748
(dp749
S'warm_start'
p750
I00
sS'base_estimator'
p751
g3
(g10
g5
NtRp752
(dp753
S'presort'
p754
I00
sS'splitter'
p755
S'random'
p756
sS'min_impurity_decrease'
p757
F0
sS'min_impurity_split'
p758
NsS'min_samples_leaf'
p759
I1
sS'max_features'
p760
S'auto'
p761
sS'random_state'
p762
NsS'criterion'
p763
S'gini'
p764
sS'min_weight_fraction_leaf'
p765
F0
sS'max_leaf_nodes'
p766
NsS'min_samples_split'
p767
I2
sg27
g28
sS'max_depth'
p768
NsS'class_weight'
p769
NsbsS'n_jobs'
p770
Nsg757
F0
sS'verbose'
p771
I0
sg766
NsS'bootstrap'
p772
I00
sS'oob_score'
p773
I00
sg759
I1
sS'n_estimators'
p774
I100
sg767
I2
sg765
F0
sg763
g764
sS'estimator_params'
p775
(S'criterion'
S'max_depth'
S'min_samples_split'
S'min_samples_leaf'
S'min_weight_fraction_leaf'
S'max_features'
S'max_leaf_nodes'
S'min_impurity_decrease'
S'min_impurity_split'
S'random_state'
tp776
sg762
Nsg758
Nsg760
g761
sg27
g28
sg768
Nsg769
Nsbag38
(g39
(I0
tS'b'
tRp777
(I1
(I3
tg41
(S'f8'
I0
I1
tRp778
(I3
S'<'
NNNI-1
I-1
I0
tbI00
S't\xd1E\x17]t\xe9?\xba\xe8\xa2\x8b.\xba\xe8?$\xee\x88;\xe2\x8e\xe8?'
tbaa(lp779
I325
ag3
(g4
g5
NtRp780
(dp781
S'warm_start'
p782
I00
sS'base_estimator'
p783
g3
(g10
g5
NtRp784
(dp785
S'presort'
p786
I00
sS'splitter'
p787
S'random'
p788
sS'min_impurity_decrease'
p789
F0
sS'min_impurity_split'
p790
NsS'min_samples_leaf'
p791
I1
sS'max_features'
p792
S'auto'
p793
sS'random_state'
p794
NsS'criterion'
p795
S'gini'
p796
sS'min_weight_fraction_leaf'
p797
F0
sS'max_leaf_nodes'
p798
NsS'min_samples_split'
p799
I2
sg27
g28
sS'max_depth'
p800
NsS'class_weight'
p801
NsbsS'n_jobs'
p802
Nsg789
F0
sS'verbose'
p803
I0
sg798
NsS'bootstrap'
p804
I00
sS'oob_score'
p805
I00
sg791
I1
sS'n_estimators'
p806
I100
sg799
I2
sg797
F0
sg795
g796
sS'estimator_params'
p807
(S'criterion'
S'max_depth'
S'min_samples_split'
S'min_samples_leaf'
S'min_weight_fraction_leaf'
S'max_features'
S'max_leaf_nodes'
S'min_impurity_decrease'
S'min_impurity_split'
S'random_state'
tp808
sg794
Nsg790
Nsg792
g793
sg27
g28
sg800
Nsg801
Nsbag38
(g39
(I0
tS'b'
tRp809
(I1
(I3
tg41
(S'f8'
I0
I1
tRp810
(I3
S'<'
NNNI-1
I-1
I0
tbI00
S't\xd1E\x17]t\xe9?t\xd1E\x17]t\xe9?S\xd6\x945eM\xe9?'
tbaa(lp811
I546
ag3
(g4
g5
NtRp812
(dp813
S'warm_start'
p814
I00
sS'base_estimator'
p815
g3
(g10
g5
NtRp816
(dp817
S'presort'
p818
I00
sS'splitter'
p819
S'random'
p820
sS'min_impurity_decrease'
p821
F0
sS'min_impurity_split'
p822
NsS'min_samples_leaf'
p823
I1
sS'max_features'
p824
S'auto'
p825
sS'random_state'
p826
NsS'criterion'
p827
S'gini'
p828
sS'min_weight_fraction_leaf'
p829
F0
sS'max_leaf_nodes'
p830
NsS'min_samples_split'
p831
I2
sg27
g28
sS'max_depth'
p832
NsS'class_weight'
p833
NsbsS'n_jobs'
p834
Nsg821
F0
sS'verbose'
p835
I0
sg830
NsS'bootstrap'
p836
I00
sS'oob_score'
p837
I00
sg823
I1
sS'n_estimators'
p838
I100
sg831
I2
sg829
F0
sg827
g828
sS'estimator_params'
p839
(S'criterion'
S'max_depth'
S'min_samples_split'
S'min_samples_leaf'
S'min_weight_fraction_leaf'
S'max_features'
S'max_leaf_nodes'
S'min_impurity_decrease'
S'min_impurity_split'
S'random_state'
tp840
sg826
Nsg822
Nsg824
g825
sg27
g28
sg832
Nsg833
Nsbag38
(g39
(I0
tS'b'
tRp841
(I1
(I3
tg41
(S'f8'
I0
I1
tRp842
(I3
S'<'
NNNI-1
I-1
I0
tbI00
S'\x8c.\xba\xe8\xa2\x8b\xe6?F\x17]t\xd1E\xe7?\x955eMYS\xe6?'
tbaa(lp843
I515
ag3
(g4
g5
NtRp844
(dp845
S'warm_start'
p846
I00
sS'base_estimator'
p847
g3
(g10
g5
NtRp848
(dp849
S'presort'
p850
I00
sS'splitter'
p851
S'random'
p852
sS'min_impurity_decrease'
p853
F0
sS'min_impurity_split'
p854
NsS'min_samples_leaf'
p855
I1
sS'max_features'
p856
S'auto'
p857
sS'random_state'
p858
NsS'criterion'
p859
S'gini'
p860
sS'min_weight_fraction_leaf'
p861
F0
sS'max_leaf_nodes'
p862
NsS'min_samples_split'
p863
I2
sg27
g28
sS'max_depth'
p864
NsS'class_weight'
p865
NsbsS'n_jobs'
p866
Nsg853
F0
sS'verbose'
p867
I0
sg862
NsS'bootstrap'
p868
I00
sS'oob_score'
p869
I00
sg855
I1
sS'n_estimators'
p870
I100
sg863
I2
sg861
F0
sg859
g860
sS'estimator_params'
p871
(S'criterion'
S'max_depth'
S'min_samples_split'
S'min_samples_leaf'
S'min_weight_fraction_leaf'
S'max_features'
S'max_leaf_nodes'
S'min_impurity_decrease'
S'min_impurity_split'
S'random_state'
tp872
sg858
Nsg854
Nsg856
g857
sg27
g28
sg864
Nsg865
Nsbag38
(g39
(I0
tS'b'
tRp873
(I1
(I3
tg41
(S'f8'
I0
I1
tRp874
(I3
S'<'
NNNI-1
I-1
I0
tbI00
S'\xa3\x8b.\xba\xe8\xa2\xe3?]t\xd1E\x17]\xe4?\x06}A_\xd0\x17\xe4?'
tbaa(lp875
I614
ag3
(g4
g5
NtRp876
(dp877
S'warm_start'
p878
I00
sS'base_estimator'
p879
g3
(g10
g5
NtRp880
(dp881
S'presort'
p882
I00
sS'splitter'
p883
S'random'
p884
sS'min_impurity_decrease'
p885
F0
sS'min_impurity_split'
p886
NsS'min_samples_leaf'
p887
I1
sS'max_features'
p888
S'auto'
p889
sS'random_state'
p890
NsS'criterion'
p891
S'gini'
p892
sS'min_weight_fraction_leaf'
p893
F0
sS'max_leaf_nodes'
p894
NsS'min_samples_split'
p895
I2
sg27
g28
sS'max_depth'
p896
NsS'class_weight'
p897
NsbsS'n_jobs'
p898
Nsg885
F0
sS'verbose'
p899
I0
sg894
NsS'bootstrap'
p900
I00
sS'oob_score'
p901
I00
sg887
I1
sS'n_estimators'
p902
I100
sg895
I2
sg893
F0
sg891
g892
sS'estimator_params'
p903
(S'criterion'
S'max_depth'
S'min_samples_split'
S'min_samples_leaf'
S'min_weight_fraction_leaf'
S'max_features'
S'max_leaf_nodes'
S'min_impurity_decrease'
S'min_impurity_split'
S'random_state'
tp904
sg890
Nsg886
Nsg888
g889
sg27
g28
sg896
Nsg897
Nsbag38
(g39
(I0
tS'b'
tRp905
(I1
(I3
tg41
(S'f8'
I0
I1
tRp906
(I3
S'<'
NNNI-1
I-1
I0
tbI00
S'\xba\xe8\xa2\x8b.\xba\xd8?\x00\x00\x00\x00\x00\x00\xe0?qG\xdc\x11w\xc4\xdd?'
tbaa(lp907
I115
ag3
(g4
g5
NtRp908
(dp909
S'warm_start'
p910
I00
sS'base_estimator'
p911
g3
(g10
g5
NtRp912
(dp913
S'presort'
p914
I00
sS'splitter'
p915
S'random'
p916
sS'min_impurity_decrease'
p917
F0
sS'min_impurity_split'
p918
NsS'min_samples_leaf'
p919
I1
sS'max_features'
p920
S'auto'
p921
sS'random_state'
p922
NsS'criterion'
p923
S'gini'
p924
sS'min_weight_fraction_leaf'
p925
F0
sS'max_leaf_nodes'
p926
NsS'min_samples_split'
p927
I2
sg27
g28
sS'max_depth'
p928
NsS'class_weight'
p929
NsbsS'n_jobs'
p930
Nsg917
F0
sS'verbose'
p931
I0
sg926
NsS'bootstrap'
p932
I00
sS'oob_score'
p933
I00
sg919
I1
sS'n_estimators'
p934
I100
sg927
I2
sg925
F0
sg923
g924
sS'estimator_params'
p935
(S'criterion'
S'max_depth'
S'min_samples_split'
S'min_samples_leaf'
S'min_weight_fraction_leaf'
S'max_features'
S'max_leaf_nodes'
S'min_impurity_decrease'
S'min_impurity_split'
S'random_state'
tp936
sg922
Nsg918
Nsg920
g921
sg27
g28
sg928
Nsg929
Nsbag38
(g39
(I0
tS'b'
tRp937
(I1
(I3
tg41
(S'f8'
I0
I1
tRp938
(I3
S'<'
NNNI-1
I-1
I0
tbI00
S'9\x8e\xe38\x8e\xe3\xe8?S\xd6\x945eM\xe9?S\xd6\x945eM\xe9?'
tbaa(lp939
I246
ag3
(g4
g5
NtRp940
(dp941
S'warm_start'
p942
I00
sS'base_estimator'
p943
g3
(g10
g5
NtRp944
(dp945
S'presort'
p946
I00
sS'splitter'
p947
S'random'
p948
sS'min_impurity_decrease'
p949
F0
sS'min_impurity_split'
p950
NsS'min_samples_leaf'
p951
I1
sS'max_features'
p952
S'auto'
p953
sS'random_state'
p954
NsS'criterion'
p955
S'gini'
p956
sS'min_weight_fraction_leaf'
p957
F0
sS'max_leaf_nodes'
p958
NsS'min_samples_split'
p959
I2
sg27
g28
sS'max_depth'
p960
NsS'class_weight'
p961
NsbsS'n_jobs'
p962
Nsg949
F0
sS'verbose'
p963
I0
sg958
NsS'bootstrap'
p964
I00
sS'oob_score'
p965
I00
sg951
I1
sS'n_estimators'
p966
I100
sg959
I2
sg957
F0
sg955
g956
sS'estimator_params'
p967
(S'criterion'
S'max_depth'
S'min_samples_split'
S'min_samples_leaf'
S'min_weight_fraction_leaf'
S'max_features'
S'max_leaf_nodes'
S'min_impurity_decrease'
S'min_impurity_split'
S'random_state'
tp968
sg954
Nsg950
Nsg952
g953
sg27
g28
sg960
Nsg961
Nsbag38
(g39
(I0
tS'b'
tRp969
(I1
(I3
tg41
(S'f8'
I0
I1
tRp970
(I3
S'<'
NNNI-1
I-1
I0
tbI00
S'\x00\x00\x00\x00\x00\x00\xe8?\xba\xe8\xa2\x8b.\xba\xe8?\xf4\x05}A_\xd0\xe7?'
tbaa(lp971
I750
ag3
(g4
g5
NtRp972
(dp973
S'warm_start'
p974
I00
sS'base_estimator'
p975
g3
(g10
g5
NtRp976
(dp977
S'presort'
p978
I00
sS'splitter'
p979
S'random'
p980
sS'min_impurity_decrease'
p981
F0
sS'min_impurity_split'
p982
NsS'min_samples_leaf'
p983
I1
sS'max_features'
p984
S'auto'
p985
sS'random_state'
p986
NsS'criterion'
p987
S'gini'
p988
sS'min_weight_fraction_leaf'
p989
F0
sS'max_leaf_nodes'
p990
NsS'min_samples_split'
p991
I2
sg27
g28
sS'max_depth'
p992
NsS'class_weight'
p993
NsbsS'n_jobs'
p994
Nsg981
F0
sS'verbose'
p995
I0
sg990
NsS'bootstrap'
p996
I00
sS'oob_score'
p997
I00
sg983
I1
sS'n_estimators'
p998
I100
sg991
I2
sg989
F0
sg987
g988
sS'estimator_params'
p999
(S'criterion'
S'max_depth'
S'min_samples_split'
S'min_samples_leaf'
S'min_weight_fraction_leaf'
S'max_features'
S'max_leaf_nodes'
S'min_impurity_decrease'
S'min_impurity_split'
S'random_state'
tp1000
sg986
Nsg982
Nsg984
g985
sg27
g28
sg992
Nsg993
Nsbag38
(g39
(I0
tS'b'
tRp1001
(I1
(I3
tg41
(S'f8'
I0
I1
tRp1002
(I3
S'<'
NNNI-1
I-1
I0
tbI00
S'wwwwww\xe7?\x955eMYS\xe6?\xc4\x1dqG\xdc\x11\xe7?'
tbaa(lp1003
I809
ag3
(g4
g5
NtRp1004
(dp1005
S'warm_start'
p1006
I00
sS'base_estimator'
p1007
g3
(g10
g5
NtRp1008
(dp1009
S'presort'
p1010
I00
sS'splitter'
p1011
S'random'
p1012
sS'min_impurity_decrease'
p1013
F0
sS'min_impurity_split'
p1014
NsS'min_samples_leaf'
p1015
I1
sS'max_features'
p1016
S'auto'
p1017
sS'random_state'
p1018
NsS'criterion'
p1019
S'gini'
p1020
sS'min_weight_fraction_leaf'
p1021
F0
sS'max_leaf_nodes'
p1022
NsS'min_samples_split'
p1023
I2
sg27
g28
sS'max_depth'
p1024
NsS'class_weight'
p1025
NsbsS'n_jobs'
p1026
Nsg1013
F0
sS'verbose'
p1027
I0
sg1022
NsS'bootstrap'
p1028
I00
sS'oob_score'
p1029
I00
sg1015
I1
sS'n_estimators'
p1030
I100
sg1023
I2
sg1021
F0
sg1019
g1020
sS'estimator_params'
p1031
(S'criterion'
S'max_depth'
S'min_samples_split'
S'min_samples_leaf'
S'min_weight_fraction_leaf'
S'max_features'
S'max_leaf_nodes'
S'min_impurity_decrease'
S'min_impurity_split'
S'random_state'
tp1032
sg1018
Nsg1014
Nsg1016
g1017
sg27
g28
sg1024
Nsg1025
Nsbag38
(g39
(I0
tS'b'
tRp1033
(I1
(I3
tg41
(S'f8'
I0
I1
tRp1034
(I3
S'<'
NNNI-1
I-1
I0
tbI00
S'/\xba\xe8\xa2\x8b.\xea?/\xba\xe8\xa2\x8b.\xea?\xb3\xa6\xac)k\xca\xea?'
tbaa(lp1035
I562
ag3
(g4
g5
NtRp1036
(dp1037
S'warm_start'
p1038
I00
sS'base_estimator'
p1039
g3
(g10
g5
NtRp1040
(dp1041
S'presort'
p1042
I00
sS'splitter'
p1043
S'random'
p1044
sS'min_impurity_decrease'
p1045
F0
sS'min_impurity_split'
p1046
NsS'min_samples_leaf'
p1047
I1
sS'max_features'
p1048
S'auto'
p1049
sS'random_state'
p1050
NsS'criterion'
p1051
S'gini'
p1052
sS'min_weight_fraction_leaf'
p1053
F0
sS'max_leaf_nodes'
p1054
NsS'min_samples_split'
p1055
I2
sg27
g28
sS'max_depth'
p1056
NsS'class_weight'
p1057
NsbsS'n_jobs'
p1058
Nsg1045
F0
sS'verbose'
p1059
I0
sg1054
NsS'bootstrap'
p1060
I00
sS'oob_score'
p1061
I00
sg1047
I1
sS'n_estimators'
p1062
I100
sg1055
I2
sg1053
F0
sg1051
g1052
sS'estimator_params'
p1063
(S'criterion'
S'max_depth'
S'min_samples_split'
S'min_samples_leaf'
S'min_weight_fraction_leaf'
S'max_features'
S'max_leaf_nodes'
S'min_impurity_decrease'
S'min_impurity_split'
S'random_state'
tp1064
sg1050
Nsg1046
Nsg1048
g1049
sg27
g28
sg1056
Nsg1057
Nsbag38
(g39
(I0
tS'b'
tRp1065
(I1
(I3
tg41
(S'f8'
I0
I1
tRp1066
(I3
S'<'
NNNI-1
I-1
I0
tbI00
S't\xd1E\x17]t\xe1?\x8c.\xba\xe8\xa2\x8b\xde?\x18\xf4\x05}A_\xe0?'
tbaa(lp1067
I958
ag3
(g4
g5
NtRp1068
(dp1069
S'warm_start'
p1070
I00
sS'base_estimator'
p1071
g3
(g10
g5
NtRp1072
(dp1073
S'presort'
p1074
I00
sS'splitter'
p1075
S'random'
p1076
sS'min_impurity_decrease'
p1077
F0
sS'min_impurity_split'
p1078
NsS'min_samples_leaf'
p1079
I1
sS'max_features'
p1080
S'auto'
p1081
sS'random_state'
p1082
NsS'criterion'
p1083
S'gini'
p1084
sS'min_weight_fraction_leaf'
p1085
F0
sS'max_leaf_nodes'
p1086
NsS'min_samples_split'
p1087
I2
sg27
g28
sS'max_depth'
p1088
NsS'class_weight'
p1089
NsbsS'n_jobs'
p1090
Nsg1077
F0
sS'verbose'
p1091
I0
sg1086
NsS'bootstrap'
p1092
I00
sS'oob_score'
p1093
I00
sg1079
I1
sS'n_estimators'
p1094
I100
sg1087
I2
sg1085
F0
sg1083
g1084
sS'estimator_params'
p1095
(S'criterion'
S'max_depth'
S'min_samples_split'
S'min_samples_leaf'
S'min_weight_fraction_leaf'
S'max_features'
S'max_leaf_nodes'
S'min_impurity_decrease'
S'min_impurity_split'
S'random_state'
tp1096
sg1082
Nsg1078
Nsg1080
g1081
sg27
g28
sg1088
Nsg1089
Nsbag38
(g39
(I0
tS'b'
tRp1097
(I1
(I3
tg41
(S'f8'
I0
I1
tRp1098
(I3
S'<'
NNNI-1
I-1
I0
tbI00
S'\xba\xe8\xa2\x8b.\xba\xe8?t\xd1E\x17]t\xe9?S\xd6\x945eM\xe9?'
tbaa(lp1099
I643
ag3
(g4
g5
NtRp1100
(dp1101
S'warm_start'
p1102
I00
sS'base_estimator'
p1103
g3
(g10
g5
NtRp1104
(dp1105
S'presort'
p1106
I00
sS'splitter'
p1107
S'random'
p1108
sS'min_impurity_decrease'
p1109
F0
sS'min_impurity_split'
p1110
NsS'min_samples_leaf'
p1111
I1
sS'max_features'
p1112
S'auto'
p1113
sS'random_state'
p1114
NsS'criterion'
p1115
S'gini'
p1116
sS'min_weight_fraction_leaf'
p1117
F0
sS'max_leaf_nodes'
p1118
NsS'min_samples_split'
p1119
I2
sg27
g28
sS'max_depth'
p1120
NsS'class_weight'
p1121
NsbsS'n_jobs'
p1122
Nsg1109
F0
sS'verbose'
p1123
I0
sg1118
NsS'bootstrap'
p1124
I00
sS'oob_score'
p1125
I00
sg1111
I1
sS'n_estimators'
p1126
I100
sg1119
I2
sg1117
F0
sg1115
g1116
sS'estimator_params'
p1127
(S'criterion'
S'max_depth'
S'min_samples_split'
S'min_samples_leaf'
S'min_weight_fraction_leaf'
S'max_features'
S'max_leaf_nodes'
S'min_impurity_decrease'
S'min_impurity_split'
S'random_state'
tp1128
sg1114
Nsg1110
Nsg1112
g1113
sg27
g28
sg1120
Nsg1121
Nsbag38
(g39
(I0
tS'b'
tRp1129
(I1
(I3
tg41
(S'f8'
I0
I1
tRp1130
(I3
S'<'
NNNI-1
I-1
I0
tbI00
S'\x00\x00\x00\x00\x00\x00\xe8?\x00\x00\x00\x00\x00\x00\xe8?S\xd6\x945eM\xe9?'
tbaa(lp1131
I398
ag3
(g4
g5
NtRp1132
(dp1133
S'warm_start'
p1134
I00
sS'base_estimator'
p1135
g3
(g10
g5
NtRp1136
(dp1137
S'presort'
p1138
I00
sS'splitter'
p1139
S'random'
p1140
sS'min_impurity_decrease'
p1141
F0
sS'min_impurity_split'
p1142
NsS'min_samples_leaf'
p1143
I1
sS'max_features'
p1144
S'auto'
p1145
sS'random_state'
p1146
NsS'criterion'
p1147
S'gini'
p1148
sS'min_weight_fraction_leaf'
p1149
F0
sS'max_leaf_nodes'
p1150
NsS'min_samples_split'
p1151
I2
sg27
g28
sS'max_depth'
p1152
NsS'class_weight'
p1153
NsbsS'n_jobs'
p1154
Nsg1141
F0
sS'verbose'
p1155
I0
sg1150
NsS'bootstrap'
p1156
I00
sS'oob_score'
p1157
I00
sg1143
I1
sS'n_estimators'
p1158
I100
sg1151
I2
sg1149
F0
sg1147
g1148
sS'estimator_params'
p1159
(S'criterion'
S'max_depth'
S'min_samples_split'
S'min_samples_leaf'
S'min_weight_fraction_leaf'
S'max_features'
S'max_leaf_nodes'
S'min_impurity_decrease'
S'min_impurity_split'
S'random_state'
tp1160
sg1146
Nsg1142
Nsg1144
g1145
sg27
g28
sg1152
Nsg1153
Nsbag38
(g39
(I0
tS'b'
tRp1161
(I1
(I3
tg41
(S'f8'
I0
I1
tRp1162
(I3
S'<'
NNNI-1
I-1
I0
tbI00
S'\xd1E\x17]t\xd1\xe5?\xd1E\x17]t\xd1\xe5?eMYS\xd6\x94\xe5?'
tbaa(lp1163
I882
ag3
(g4
g5
NtRp1164
(dp1165
S'warm_start'
p1166
I00
sS'base_estimator'
p1167
g3
(g10
g5
NtRp1168
(dp1169
S'presort'
p1170
I00
sS'splitter'
p1171
S'random'
p1172
sS'min_impurity_decrease'
p1173
F0
sS'min_impurity_split'
p1174
NsS'min_samples_leaf'
p1175
I1
sS'max_features'
p1176
S'auto'
p1177
sS'random_state'
p1178
NsS'criterion'
p1179
S'gini'
p1180
sS'min_weight_fraction_leaf'
p1181
F0
sS'max_leaf_nodes'
p1182
NsS'min_samples_split'
p1183
I2
sg27
g28
sS'max_depth'
p1184
NsS'class_weight'
p1185
NsbsS'n_jobs'
p1186
Nsg1173
F0
sS'verbose'
p1187
I0
sg1182
NsS'bootstrap'
p1188
I00
sS'oob_score'
p1189
I00
sg1175
I1
sS'n_estimators'
p1190
I100
sg1183
I2
sg1181
F0
sg1179
g1180
sS'estimator_params'
p1191
(S'criterion'
S'max_depth'
S'min_samples_split'
S'min_samples_leaf'
S'min_weight_fraction_leaf'
S'max_features'
S'max_leaf_nodes'
S'min_impurity_decrease'
S'min_impurity_split'
S'random_state'
tp1192
sg1178
Nsg1174
Nsg1176
g1177
sg27
g28
sg1184
Nsg1185
Nsbag38
(g39
(I0
tS'b'
tRp1193
(I1
(I3
tg41
(S'f8'
I0
I1
tRp1194
(I3
S'<'
NNNI-1
I-1
I0
tbI00
S'\x1c\xc7q\x1c\xc7q\xec?\x12w\xc4\x1dqG\xec?A_\xd0\x17\xf4\x05\xed?'
tbaa(lp1195
I510
ag3
(g4
g5
NtRp1196
(dp1197
S'warm_start'
p1198
I00
sS'base_estimator'
p1199
g3
(g10
g5
NtRp1200
(dp1201
S'presort'
p1202
I00
sS'splitter'
p1203
S'random'
p1204
sS'min_impurity_decrease'
p1205
F0
sS'min_impurity_split'
p1206
NsS'min_samples_leaf'
p1207
I1
sS'max_features'
p1208
S'auto'
p1209
sS'random_state'
p1210
NsS'criterion'
p1211
S'gini'
p1212
sS'min_weight_fraction_leaf'
p1213
F0
sS'max_leaf_nodes'
p1214
NsS'min_samples_split'
p1215
I2
sg27
g28
sS'max_depth'
p1216
NsS'class_weight'
p1217
NsbsS'n_jobs'
p1218
Nsg1205
F0
sS'verbose'
p1219
I0
sg1214
NsS'bootstrap'
p1220
I00
sS'oob_score'
p1221
I00
sg1207
I1
sS'n_estimators'
p1222
I100
sg1215
I2
sg1213
F0
sg1211
g1212
sS'estimator_params'
p1223
(S'criterion'
S'max_depth'
S'min_samples_split'
S'min_samples_leaf'
S'min_weight_fraction_leaf'
S'max_features'
S'max_leaf_nodes'
S'min_impurity_decrease'
S'min_impurity_split'
S'random_state'
tp1224
sg1210
Nsg1206
Nsg1208
g1209
sg27
g28
sg1216
Nsg1217
Nsbag38
(g39
(I0
tS'b'
tRp1225
(I1
(I3
tg41
(S'f8'
I0
I1
tRp1226
(I3
S'<'
NNNI-1
I-1
I0
tbI00
S'\xa3\x8b.\xba\xe8\xa2\xeb?\xa3\x8b.\xba\xe8\xa2\xeb?\xb3\xa6\xac)k\xca\xea?'
tbaa(lp1227
I740
ag3
(g4
g5
NtRp1228
(dp1229
S'warm_start'
p1230
I00
sS'base_estimator'
p1231
g3
(g10
g5
NtRp1232
(dp1233
S'presort'
p1234
I00
sS'splitter'
p1235
S'random'
p1236
sS'min_impurity_decrease'
p1237
F0
sS'min_impurity_split'
p1238
NsS'min_samples_leaf'
p1239
I1
sS'max_features'
p1240
S'auto'
p1241
sS'random_state'
p1242
NsS'criterion'
p1243
S'gini'
p1244
sS'min_weight_fraction_leaf'
p1245
F0
sS'max_leaf_nodes'
p1246
NsS'min_samples_split'
p1247
I2
sg27
g28
sS'max_depth'
p1248
NsS'class_weight'
p1249
NsbsS'n_jobs'
p1250
Nsg1237
F0
sS'verbose'
p1251
I0
sg1246
NsS'bootstrap'
p1252
I00
sS'oob_score'
p1253
I00
sg1239
I1
sS'n_estimators'
p1254
I100
sg1247
I2
sg1245
F0
sg1243
g1244
sS'estimator_params'
p1255
(S'criterion'
S'max_depth'
S'min_samples_split'
S'min_samples_leaf'
S'min_weight_fraction_leaf'
S'max_features'
S'max_leaf_nodes'
S'min_impurity_decrease'
S'min_impurity_split'
S'random_state'
tp1256
sg1242
Nsg1238
Nsg1240
g1241
sg27
g28
sg1248
Nsg1249
Nsbag38
(g39
(I0
tS'b'
tRp1257
(I1
(I3
tg41
(S'f8'
I0
I1
tRp1258
(I3
S'<'
NNNI-1
I-1
I0
tbI00
S'/\xba\xe8\xa2\x8b.\xea?/\xba\xe8\xa2\x8b.\xea?\x83\xbe\xa0/\xe8\x0b\xea?'
tbaa(lp1259
I503
ag3
(g4
g5
NtRp1260
(dp1261
S'warm_start'
p1262
I00
sS'base_estimator'
p1263
g3
(g10
g5
NtRp1264
(dp1265
S'presort'
p1266
I00
sS'splitter'
p1267
S'random'
p1268
sS'min_impurity_decrease'
p1269
F0
sS'min_impurity_split'
p1270
NsS'min_samples_leaf'
p1271
I1
sS'max_features'
p1272
S'auto'
p1273
sS'random_state'
p1274
NsS'criterion'
p1275
S'gini'
p1276
sS'min_weight_fraction_leaf'
p1277
F0
sS'max_leaf_nodes'
p1278
NsS'min_samples_split'
p1279
I2
sg27
g28
sS'max_depth'
p1280
NsS'class_weight'
p1281
NsbsS'n_jobs'
p1282
Nsg1269
F0
sS'verbose'
p1283
I0
sg1278
NsS'bootstrap'
p1284
I00
sS'oob_score'
p1285
I00
sg1271
I1
sS'n_estimators'
p1286
I100
sg1279
I2
sg1277
F0
sg1275
g1276
sS'estimator_params'
p1287
(S'criterion'
S'max_depth'
S'min_samples_split'
S'min_samples_leaf'
S'min_weight_fraction_leaf'
S'max_features'
S'max_leaf_nodes'
S'min_impurity_decrease'
S'min_impurity_split'
S'random_state'
tp1288
sg1274
Nsg1270
Nsg1272
g1273
sg27
g28
sg1280
Nsg1281
Nsbag38
(g39
(I0
tS'b'
tRp1289
(I1
(I3
tg41
(S'f8'
I0
I1
tRp1290
(I3
S'<'
NNNI-1
I-1
I0
tbI00
S'[\xb0\x05[\xb0\x05\xeb?\xb3\xa6\xac)k\xca\xea?\xe2\x8e\xb8#\xee\x88\xeb?'
tbaa(lp1291
I880
ag3
(g4
g5
NtRp1292
(dp1293
S'warm_start'
p1294
I00
sS'base_estimator'
p1295
g3
(g10
g5
NtRp1296
(dp1297
S'presort'
p1298
I00
sS'splitter'
p1299
S'random'
p1300
sS'min_impurity_decrease'
p1301
F0
sS'min_impurity_split'
p1302
NsS'min_samples_leaf'
p1303
I1
sS'max_features'
p1304
S'auto'
p1305
sS'random_state'
p1306
NsS'criterion'
p1307
S'gini'
p1308
sS'min_weight_fraction_leaf'
p1309
F0
sS'max_leaf_nodes'
p1310
NsS'min_samples_split'
p1311
I2
sg27
g28
sS'max_depth'
p1312
NsS'class_weight'
p1313
NsbsS'n_jobs'
p1314
Nsg1301
F0
sS'verbose'
p1315
I0
sg1310
NsS'bootstrap'
p1316
I00
sS'oob_score'
p1317
I00
sg1303
I1
sS'n_estimators'
p1318
I100
sg1311
I2
sg1309
F0
sg1307
g1308
sS'estimator_params'
p1319
(S'criterion'
S'max_depth'
S'min_samples_split'
S'min_samples_leaf'
S'min_weight_fraction_leaf'
S'max_features'
S'max_leaf_nodes'
S'min_impurity_decrease'
S'min_impurity_split'
S'random_state'
tp1320
sg1306
Nsg1302
Nsg1304
g1305
sg27
g28
sg1312
Nsg1313
Nsbag38
(g39
(I0
tS'b'
tRp1321
(I1
(I3
tg41
(S'f8'
I0
I1
tRp1322
(I3
S'<'
NNNI-1
I-1
I0
tbI00
S'\xba\xe8\xa2\x8b.\xba\xe8?\xe9\xa2\x8b.\xba\xe8\xea?\xb3\xa6\xac)k\xca\xea?'
tbaa(lp1323
I30
ag3
(g4
g5
NtRp1324
(dp1325
S'warm_start'
p1326
I00
sS'base_estimator'
p1327
g3
(g10
g5
NtRp1328
(dp1329
S'presort'
p1330
I00
sS'splitter'
p1331
S'random'
p1332
sS'min_impurity_decrease'
p1333
F0
sS'min_impurity_split'
p1334
NsS'min_samples_leaf'
p1335
I1
sS'max_features'
p1336
S'auto'
p1337
sS'random_state'
p1338
NsS'criterion'
p1339
S'gini'
p1340
sS'min_weight_fraction_leaf'
p1341
F0
sS'max_leaf_nodes'
p1342
NsS'min_samples_split'
p1343
I2
sg27
g28
sS'max_depth'
p1344
NsS'class_weight'
p1345
NsbsS'n_jobs'
p1346
Nsg1333
F0
sS'verbose'
p1347
I0
sg1342
NsS'bootstrap'
p1348
I00
sS'oob_score'
p1349
I00
sg1335
I1
sS'n_estimators'
p1350
I100
sg1343
I2
sg1341
F0
sg1339
g1340
sS'estimator_params'
p1351
(S'criterion'
S'max_depth'
S'min_samples_split'
S'min_samples_leaf'
S'min_weight_fraction_leaf'
S'max_features'
S'max_leaf_nodes'
S'min_impurity_decrease'
S'min_impurity_split'
S'random_state'
tp1352
sg1338
Nsg1334
Nsg1336
g1337
sg27
g28
sg1344
Nsg1345
Nsbag38
(g39
(I0
tS'b'
tRp1353
(I1
(I3
tg41
(S'f8'
I0
I1
tRp1354
(I3
S'<'
NNNI-1
I-1
I0
tbI00
S'\xe9\xa2\x8b.\xba\xe8\xea?\xe9\xa2\x8b.\xba\xe8\xea?\xb3\xa6\xac)k\xca\xea?'
tbaa(lp1355
I202
ag3
(g4
g5
NtRp1356
(dp1357
S'warm_start'
p1358
I00
sS'base_estimator'
p1359
g3
(g10
g5
NtRp1360
(dp1361
S'presort'
p1362
I00
sS'splitter'
p1363
S'random'
p1364
sS'min_impurity_decrease'
p1365
F0
sS'min_impurity_split'
p1366
NsS'min_samples_leaf'
p1367
I1
sS'max_features'
p1368
S'auto'
p1369
sS'random_state'
p1370
NsS'criterion'
p1371
S'gini'
p1372
sS'min_weight_fraction_leaf'
p1373
F0
sS'max_leaf_nodes'
p1374
NsS'min_samples_split'
p1375
I2
sg27
g28
sS'max_depth'
p1376
NsS'class_weight'
p1377
NsbsS'n_jobs'
p1378
Nsg1365
F0
sS'verbose'
p1379
I0
sg1374
NsS'bootstrap'
p1380
I00
sS'oob_score'
p1381
I00
sg1367
I1
sS'n_estimators'
p1382
I100
sg1375
I2
sg1373
F0
sg1371
g1372
sS'estimator_params'
p1383
(S'criterion'
S'max_depth'
S'min_samples_split'
S'min_samples_leaf'
S'min_weight_fraction_leaf'
S'max_features'
S'max_leaf_nodes'
S'min_impurity_decrease'
S'min_impurity_split'
S'random_state'
tp1384
sg1370
Nsg1366
Nsg1368
g1369
sg27
g28
sg1376
Nsg1377
Nsbag38
(g39
(I0
tS'b'
tRp1385
(I1
(I3
tg41
(S'f8'
I0
I1
tRp1386
(I3
S'<'
NNNI-1
I-1
I0
tbI00
S'\xba\xe8\xa2\x8b.\xba\xe8?/\xba\xe8\xa2\x8b.\xea?\x83\xbe\xa0/\xe8\x0b\xea?'
tbaa(lp1387
I350
ag3
(g4
g5
NtRp1388
(dp1389
S'warm_start'
p1390
I00
sS'base_estimator'
p1391
g3
(g10
g5
NtRp1392
(dp1393
S'presort'
p1394
I00
sS'splitter'
p1395
S'random'
p1396
sS'min_impurity_decrease'
p1397
F0
sS'min_impurity_split'
p1398
NsS'min_samples_leaf'
p1399
I1
sS'max_features'
p1400
S'auto'
p1401
sS'random_state'
p1402
NsS'criterion'
p1403
S'gini'
p1404
sS'min_weight_fraction_leaf'
p1405
F0
sS'max_leaf_nodes'
p1406
NsS'min_samples_split'
p1407
I2
sg27
g28
sS'max_depth'
p1408
NsS'class_weight'
p1409
NsbsS'n_jobs'
p1410
Nsg1397
F0
sS'verbose'
p1411
I0
sg1406
NsS'bootstrap'
p1412
I00
sS'oob_score'
p1413
I00
sg1399
I1
sS'n_estimators'
p1414
I100
sg1407
I2
sg1405
F0
sg1403
g1404
sS'estimator_params'
p1415
(S'criterion'
S'max_depth'
S'min_samples_split'
S'min_samples_leaf'
S'min_weight_fraction_leaf'
S'max_features'
S'max_leaf_nodes'
S'min_impurity_decrease'
S'min_impurity_split'
S'random_state'
tp1416
sg1402
Nsg1398
Nsg1400
g1401
sg27
g28
sg1408
Nsg1409
Nsbag38
(g39
(I0
tS'b'
tRp1417
(I1
(I3
tg41
(S'f8'
I0
I1
tRp1418
(I3
S'<'
NNNI-1
I-1
I0
tbI00
S'\xd1E\x17]t\xd1\xe5?\x00\x00\x00\x00\x00\x00\xe8?\xf4\x05}A_\xd0\xe7?'
tbaa(lp1419
I848
ag3
(g4
g5
NtRp1420
(dp1421
S'warm_start'
p1422
I00
sS'base_estimator'
p1423
g3
(g10
g5
NtRp1424
(dp1425
S'presort'
p1426
I00
sS'splitter'
p1427
S'random'
p1428
sS'min_impurity_decrease'
p1429
F0
sS'min_impurity_split'
p1430
NsS'min_samples_leaf'
p1431
I1
sS'max_features'
p1432
S'auto'
p1433
sS'random_state'
p1434
NsS'criterion'
p1435
S'gini'
p1436
sS'min_weight_fraction_leaf'
p1437
F0
sS'max_leaf_nodes'
p1438
NsS'min_samples_split'
p1439
I2
sg27
g28
sS'max_depth'
p1440
NsS'class_weight'
p1441
NsbsS'n_jobs'
p1442
Nsg1429
F0
sS'verbose'
p1443
I0
sg1438
NsS'bootstrap'
p1444
I00
sS'oob_score'
p1445
I00
sg1431
I1
sS'n_estimators'
p1446
I100
sg1439
I2
sg1437
F0
sg1435
g1436
sS'estimator_params'
p1447
(S'criterion'
S'max_depth'
S'min_samples_split'
S'min_samples_leaf'
S'min_weight_fraction_leaf'
S'max_features'
S'max_leaf_nodes'
S'min_impurity_decrease'
S'min_impurity_split'
S'random_state'
tp1448
sg1434
Nsg1430
Nsg1432
g1433
sg27
g28
sg1440
Nsg1441
Nsbag38
(g39
(I0
tS'b'
tRp1449
(I1
(I3
tg41
(S'f8'
I0
I1
tRp1450
(I3
S'<'
NNNI-1
I-1
I0
tbI00
S'[\xb0\x05[\xb0\x05\xeb?\x12w\xc4\x1dqG\xec?\xe2\x8e\xb8#\xee\x88\xeb?'
tbaa(lp1451
I341
ag3
(g4
g5
NtRp1452
(dp1453
S'warm_start'
p1454
I00
sS'base_estimator'
p1455
g3
(g10
g5
NtRp1456
(dp1457
S'presort'
p1458
I00
sS'splitter'
p1459
S'random'
p1460
sS'min_impurity_decrease'
p1461
F0
sS'min_impurity_split'
p1462
NsS'min_samples_leaf'
p1463
I1
sS'max_features'
p1464
S'auto'
p1465
sS'random_state'
p1466
NsS'criterion'
p1467
S'gini'
p1468
sS'min_weight_fraction_leaf'
p1469
F0
sS'max_leaf_nodes'
p1470
NsS'min_samples_split'
p1471
I2
sg27
g28
sS'max_depth'
p1472
NsS'class_weight'
p1473
NsbsS'n_jobs'
p1474
Nsg1461
F0
sS'verbose'
p1475
I0
sg1470
NsS'bootstrap'
p1476
I00
sS'oob_score'
p1477
I00
sg1463
I1
sS'n_estimators'
p1478
I100
sg1471
I2
sg1469
F0
sg1467
g1468
sS'estimator_params'
p1479
(S'criterion'
S'max_depth'
S'min_samples_split'
S'min_samples_leaf'
S'min_weight_fraction_leaf'
S'max_features'
S'max_leaf_nodes'
S'min_impurity_decrease'
S'min_impurity_split'
S'random_state'
tp1480
sg1466
Nsg1462
Nsg1464
g1465
sg27
g28
sg1472
Nsg1473
Nsbag38
(g39
(I0
tS'b'
tRp1481
(I1
(I3
tg41
(S'f8'
I0
I1
tRp1482
(I3
S'<'
NNNI-1
I-1
I0
tbI00
S'F\x17]t\xd1E\xe7?\x00\x00\x00\x00\x00\x00\xe8?\xc4\x1dqG\xdc\x11\xe7?'
tbaa(lp1483
I122
ag3
(g4
g5
NtRp1484
(dp1485
S'warm_start'
p1486
I00
sS'base_estimator'
p1487
g3
(g10
g5
NtRp1488
(dp1489
S'presort'
p1490
I00
sS'splitter'
p1491
S'random'
p1492
sS'min_impurity_decrease'
p1493
F0
sS'min_impurity_split'
p1494
NsS'min_samples_leaf'
p1495
I1
sS'max_features'
p1496
S'auto'
p1497
sS'random_state'
p1498
NsS'criterion'
p1499
S'gini'
p1500
sS'min_weight_fraction_leaf'
p1501
F0
sS'max_leaf_nodes'
p1502
NsS'min_samples_split'
p1503
I2
sg27
g28
sS'max_depth'
p1504
NsS'class_weight'
p1505
NsbsS'n_jobs'
p1506
Nsg1493
F0
sS'verbose'
p1507
I0
sg1502
NsS'bootstrap'
p1508
I00
sS'oob_score'
p1509
I00
sg1495
I1
sS'n_estimators'
p1510
I100
sg1503
I2
sg1501
F0
sg1499
g1500
sS'estimator_params'
p1511
(S'criterion'
S'max_depth'
S'min_samples_split'
S'min_samples_leaf'
S'min_weight_fraction_leaf'
S'max_features'
S'max_leaf_nodes'
S'min_impurity_decrease'
S'min_impurity_split'
S'random_state'
tp1512
sg1498
Nsg1494
Nsg1496
g1497
sg27
g28
sg1504
Nsg1505
Nsbag38
(g39
(I0
tS'b'
tRp1513
(I1
(I3
tg41
(S'f8'
I0
I1
tRp1514
(I3
S'<'
NNNI-1
I-1
I0
tbI00
S'\xd8\x82-\xd8\x82-\xe8?$\xee\x88;\xe2\x8e\xe8?S\xd6\x945eM\xe9?'
tbaa(lp1515
I343
ag3
(g4
g5
NtRp1516
(dp1517
S'warm_start'
p1518
I00
sS'base_estimator'
p1519
g3
(g10
g5
NtRp1520
(dp1521
S'presort'
p1522
I00
sS'splitter'
p1523
S'random'
p1524
sS'min_impurity_decrease'
p1525
F0
sS'min_impurity_split'
p1526
NsS'min_samples_leaf'
p1527
I1
sS'max_features'
p1528
S'auto'
p1529
sS'random_state'
p1530
NsS'criterion'
p1531
S'gini'
p1532
sS'min_weight_fraction_leaf'
p1533
F0
sS'max_leaf_nodes'
p1534
NsS'min_samples_split'
p1535
I2
sg27
g28
sS'max_depth'
p1536
NsS'class_weight'
p1537
NsbsS'n_jobs'
p1538
Nsg1525
F0
sS'verbose'
p1539
I0
sg1534
NsS'bootstrap'
p1540
I00
sS'oob_score'
p1541
I00
sg1527
I1
sS'n_estimators'
p1542
I100
sg1535
I2
sg1533
F0
sg1531
g1532
sS'estimator_params'
p1543
(S'criterion'
S'max_depth'
S'min_samples_split'
S'min_samples_leaf'
S'min_weight_fraction_leaf'
S'max_features'
S'max_leaf_nodes'
S'min_impurity_decrease'
S'min_impurity_split'
S'random_state'
tp1544
sg1530
Nsg1526
Nsg1528
g1529
sg27
g28
sg1536
Nsg1537
Nsbag38
(g39
(I0
tS'b'
tRp1545
(I1
(I3
tg41
(S'f8'
I0
I1
tRp1546
(I3
S'<'
NNNI-1
I-1
I0
tbI00
S'\xbc\xbb\xbb\xbb\xbb\xbb\xeb?\x12w\xc4\x1dqG\xec?\x12w\xc4\x1dqG\xec?'
tbaa(lp1547
I451
ag3
(g4
g5
NtRp1548
(dp1549
S'warm_start'
p1550
I00
sS'base_estimator'
p1551
g3
(g10
g5
NtRp1552
(dp1553
S'presort'
p1554
I00
sS'splitter'
p1555
S'random'
p1556
sS'min_impurity_decrease'
p1557
F0
sS'min_impurity_split'
p1558
NsS'min_samples_leaf'
p1559
I1
sS'max_features'
p1560
S'auto'
p1561
sS'random_state'
p1562
NsS'criterion'
p1563
S'gini'
p1564
sS'min_weight_fraction_leaf'
p1565
F0
sS'max_leaf_nodes'
p1566
NsS'min_samples_split'
p1567
I2
sg27
g28
sS'max_depth'
p1568
NsS'class_weight'
p1569
NsbsS'n_jobs'
p1570
Nsg1557
F0
sS'verbose'
p1571
I0
sg1566
NsS'bootstrap'
p1572
I00
sS'oob_score'
p1573
I00
sg1559
I1
sS'n_estimators'
p1574
I100
sg1567
I2
sg1565
F0
sg1563
g1564
sS'estimator_params'
p1575
(S'criterion'
S'max_depth'
S'min_samples_split'
S'min_samples_leaf'
S'min_weight_fraction_leaf'
S'max_features'
S'max_leaf_nodes'
S'min_impurity_decrease'
S'min_impurity_split'
S'random_state'
tp1576
sg1562
Nsg1558
Nsg1560
g1561
sg27
g28
sg1568
Nsg1569
Nsbag38
(g39
(I0
tS'b'
tRp1577
(I1
(I3
tg41
(S'f8'
I0
I1
tRp1578
(I3
S'<'
NNNI-1
I-1
I0
tbI00
S'\xba\xe8\xa2\x8b.\xba\xe8?\xba\xe8\xa2\x8b.\xba\xe8?\xf4\x05}A_\xd0\xe7?'
tbaa(lp1579
I402
ag3
(g4
g5
NtRp1580
(dp1581
S'warm_start'
p1582
I00
sS'base_estimator'
p1583
g3
(g10
g5
NtRp1584
(dp1585
S'presort'
p1586
I00
sS'splitter'
p1587
S'random'
p1588
sS'min_impurity_decrease'
p1589
F0
sS'min_impurity_split'
p1590
NsS'min_samples_leaf'
p1591
I1
sS'max_features'
p1592
S'auto'
p1593
sS'random_state'
p1594
NsS'criterion'
p1595
S'gini'
p1596
sS'min_weight_fraction_leaf'
p1597
F0
sS'max_leaf_nodes'
p1598
NsS'min_samples_split'
p1599
I2
sg27
g28
sS'max_depth'
p1600
NsS'class_weight'
p1601
NsbsS'n_jobs'
p1602
Nsg1589
F0
sS'verbose'
p1603
I0
sg1598
NsS'bootstrap'
p1604
I00
sS'oob_score'
p1605
I00
sg1591
I1
sS'n_estimators'
p1606
I100
sg1599
I2
sg1597
F0
sg1595
g1596
sS'estimator_params'
p1607
(S'criterion'
S'max_depth'
S'min_samples_split'
S'min_samples_leaf'
S'min_weight_fraction_leaf'
S'max_features'
S'max_leaf_nodes'
S'min_impurity_decrease'
S'min_impurity_split'
S'random_state'
tp1608
sg1594
Nsg1590
Nsg1592
g1593
sg27
g28
sg1600
Nsg1601
Nsbag38
(g39
(I0
tS'b'
tRp1609
(I1
(I3
tg41
(S'f8'
I0
I1
tRp1610
(I3
S'<'
NNNI-1
I-1
I0
tbI00
S'\xa3\x8b.\xba\xe8\xa2\xeb?\xa3\x8b.\xba\xe8\xa2\xeb?\xe2\x8e\xb8#\xee\x88\xeb?'
tbaa(lp1611
I507
ag3
(g4
g5
NtRp1612
(dp1613
S'warm_start'
p1614
I00
sS'base_estimator'
p1615
g3
(g10
g5
NtRp1616
(dp1617
S'presort'
p1618
I00
sS'splitter'
p1619
S'random'
p1620
sS'min_impurity_decrease'
p1621
F0
sS'min_impurity_split'
p1622
NsS'min_samples_leaf'
p1623
I1
sS'max_features'
p1624
S'auto'
p1625
sS'random_state'
p1626
NsS'criterion'
p1627
S'gini'
p1628
sS'min_weight_fraction_leaf'
p1629
F0
sS'max_leaf_nodes'
p1630
NsS'min_samples_split'
p1631
I2
sg27
g28
sS'max_depth'
p1632
NsS'class_weight'
p1633
NsbsS'n_jobs'
p1634
Nsg1621
F0
sS'verbose'
p1635
I0
sg1630
NsS'bootstrap'
p1636
I00
sS'oob_score'
p1637
I00
sg1623
I1
sS'n_estimators'
p1638
I100
sg1631
I2
sg1629
F0
sg1627
g1628
sS'estimator_params'
p1639
(S'criterion'
S'max_depth'
S'min_samples_split'
S'min_samples_leaf'
S'min_weight_fraction_leaf'
S'max_features'
S'max_leaf_nodes'
S'min_impurity_decrease'
S'min_impurity_split'
S'random_state'
tp1640
sg1626
Nsg1622
Nsg1624
g1625
sg27
g28
sg1632
Nsg1633
Nsbag38
(g39
(I0
tS'b'
tRp1641
(I1
(I3
tg41
(S'f8'
I0
I1
tRp1642
(I3
S'<'
NNNI-1
I-1
I0
tbI00
S't\xd1E\x17]t\xe9?t\xd1E\x17]t\xe9?$\xee\x88;\xe2\x8e\xe8?'
tbaa(lp1643
I488
ag3
(g4
g5
NtRp1644
(dp1645
S'warm_start'
p1646
I00
sS'base_estimator'
p1647
g3
(g10
g5
NtRp1648
(dp1649
S'presort'
p1650
I00
sS'splitter'
p1651
S'random'
p1652
sS'min_impurity_decrease'
p1653
F0
sS'min_impurity_split'
p1654
NsS'min_samples_leaf'
p1655
I1
sS'max_features'
p1656
S'auto'
p1657
sS'random_state'
p1658
NsS'criterion'
p1659
S'gini'
p1660
sS'min_weight_fraction_leaf'
p1661
F0
sS'max_leaf_nodes'
p1662
NsS'min_samples_split'
p1663
I2
sg27
g28
sS'max_depth'
p1664
NsS'class_weight'
p1665
NsbsS'n_jobs'
p1666
Nsg1653
F0
sS'verbose'
p1667
I0
sg1662
NsS'bootstrap'
p1668
I00
sS'oob_score'
p1669
I00
sg1655
I1
sS'n_estimators'
p1670
I100
sg1663
I2
sg1661
F0
sg1659
g1660
sS'estimator_params'
p1671
(S'criterion'
S'max_depth'
S'min_samples_split'
S'min_samples_leaf'
S'min_weight_fraction_leaf'
S'max_features'
S'max_leaf_nodes'
S'min_impurity_decrease'
S'min_impurity_split'
S'random_state'
tp1672
sg1658
Nsg1654
Nsg1656
g1657
sg27
g28
sg1664
Nsg1665
Nsbag38
(g39
(I0
tS'b'
tRp1673
(I1
(I3
tg41
(S'f8'
I0
I1
tRp1674
(I3
S'<'
NNNI-1
I-1
I0
tbI00
S'\xd8\x82-\xd8\x82-\xe8?S\xd6\x945eM\xe9?$\xee\x88;\xe2\x8e\xe8?'
tbaa(lp1675
I1041
ag3
(g4
g5
NtRp1676
(dp1677
S'warm_start'
p1678
I00
sS'base_estimator'
p1679
g3
(g10
g5
NtRp1680
(dp1681
S'presort'
p1682
I00
sS'splitter'
p1683
S'random'
p1684
sS'min_impurity_decrease'
p1685
F0
sS'min_impurity_split'
p1686
NsS'min_samples_leaf'
p1687
I1
sS'max_features'
p1688
S'auto'
p1689
sS'random_state'
p1690
NsS'criterion'
p1691
S'gini'
p1692
sS'min_weight_fraction_leaf'
p1693
F0
sS'max_leaf_nodes'
p1694
NsS'min_samples_split'
p1695
I2
sg27
g28
sS'max_depth'
p1696
NsS'class_weight'
p1697
NsbsS'n_jobs'
p1698
Nsg1685
F0
sS'verbose'
p1699
I0
sg1694
NsS'bootstrap'
p1700
I00
sS'oob_score'
p1701
I00
sg1687
I1
sS'n_estimators'
p1702
I100
sg1695
I2
sg1693
F0
sg1691
g1692
sS'estimator_params'
p1703
(S'criterion'
S'max_depth'
S'min_samples_split'
S'min_samples_leaf'
S'min_weight_fraction_leaf'
S'max_features'
S'max_leaf_nodes'
S'min_impurity_decrease'
S'min_impurity_split'
S'random_state'
tp1704
sg1690
Nsg1686
Nsg1688
g1689
sg27
g28
sg1696
Nsg1697
Nsbag38
(g39
(I0
tS'b'
tRp1705
(I1
(I3
tg41
(S'f8'
I0
I1
tRp1706
(I3
S'<'
NNNI-1
I-1
I0
tbI00
S'\xba\xe8\xa2\x8b.\xba\xe8?\xba\xe8\xa2\x8b.\xba\xe8?$\xee\x88;\xe2\x8e\xe8?'
tbaa(lp1707
I897
ag3
(g4
g5
NtRp1708
(dp1709
S'warm_start'
p1710
I00
sS'base_estimator'
p1711
g3
(g10
g5
NtRp1712
(dp1713
S'presort'
p1714
I00
sS'splitter'
p1715
S'random'
p1716
sS'min_impurity_decrease'
p1717
F0
sS'min_impurity_split'
p1718
NsS'min_samples_leaf'
p1719
I1
sS'max_features'
p1720
S'auto'
p1721
sS'random_state'
p1722
NsS'criterion'
p1723
S'gini'
p1724
sS'min_weight_fraction_leaf'
p1725
F0
sS'max_leaf_nodes'
p1726
NsS'min_samples_split'
p1727
I2
sg27
g28
sS'max_depth'
p1728
NsS'class_weight'
p1729
NsbsS'n_jobs'
p1730
Nsg1717
F0
sS'verbose'
p1731
I0
sg1726
NsS'bootstrap'
p1732
I00
sS'oob_score'
p1733
I00
sg1719
I1
sS'n_estimators'
p1734
I100
sg1727
I2
sg1725
F0
sg1723
g1724
sS'estimator_params'
p1735
(S'criterion'
S'max_depth'
S'min_samples_split'
S'min_samples_leaf'
S'min_weight_fraction_leaf'
S'max_features'
S'max_leaf_nodes'
S'min_impurity_decrease'
S'min_impurity_split'
S'random_state'
tp1736
sg1722
Nsg1718
Nsg1720
g1721
sg27
g28
sg1728
Nsg1729
Nsbag38
(g39
(I0
tS'b'
tRp1737
(I1
(I3
tg41
(S'f8'
I0
I1
tRp1738
(I3
S'<'
NNNI-1
I-1
I0
tbI00
S'F\x17]t\xd1E\xe7?F\x17]t\xd1E\xe7?$\xee\x88;\xe2\x8e\xe8?'
tbaa(lp1739
I319
ag3
(g4
g5
NtRp1740
(dp1741
S'warm_start'
p1742
I00
sS'base_estimator'
p1743
g3
(g10
g5
NtRp1744
(dp1745
S'presort'
p1746
I00
sS'splitter'
p1747
S'random'
p1748
sS'min_impurity_decrease'
p1749
F0
sS'min_impurity_split'
p1750
NsS'min_samples_leaf'
p1751
I1
sS'max_features'
p1752
S'auto'
p1753
sS'random_state'
p1754
NsS'criterion'
p1755
S'gini'
p1756
sS'min_weight_fraction_leaf'
p1757
F0
sS'max_leaf_nodes'
p1758
NsS'min_samples_split'
p1759
I2
sg27
g28
sS'max_depth'
p1760
NsS'class_weight'
p1761
NsbsS'n_jobs'
p1762
Nsg1749
F0
sS'verbose'
p1763
I0
sg1758
NsS'bootstrap'
p1764
I00
sS'oob_score'
p1765
I00
sg1751
I1
sS'n_estimators'
p1766
I100
sg1759
I2
sg1757
F0
sg1755
g1756
sS'estimator_params'
p1767
(S'criterion'
S'max_depth'
S'min_samples_split'
S'min_samples_leaf'
S'min_weight_fraction_leaf'
S'max_features'
S'max_leaf_nodes'
S'min_impurity_decrease'
S'min_impurity_split'
S'random_state'
tp1768
sg1754
Nsg1750
Nsg1752
g1753
sg27
g28
sg1760
Nsg1761
Nsbag38
(g39
(I0
tS'b'
tRp1769
(I1
(I3
tg41
(S'f8'
I0
I1
tRp1770
(I3
S'<'
NNNI-1
I-1
I0
tbI00
S'\xe9\xa2\x8b.\xba\xe8\xea?\xe9\xa2\x8b.\xba\xe8\xea?\xe2\x8e\xb8#\xee\x88\xeb?'
tbaa(lp1771
I123
ag3
(g4
g5
NtRp1772
(dp1773
S'warm_start'
p1774
I00
sS'base_estimator'
p1775
g3
(g10
g5
NtRp1776
(dp1777
S'presort'
p1778
I00
sS'splitter'
p1779
S'random'
p1780
sS'min_impurity_decrease'
p1781
F0
sS'min_impurity_split'
p1782
NsS'min_samples_leaf'
p1783
I1
sS'max_features'
p1784
S'auto'
p1785
sS'random_state'
p1786
NsS'criterion'
p1787
S'gini'
p1788
sS'min_weight_fraction_leaf'
p1789
F0
sS'max_leaf_nodes'
p1790
NsS'min_samples_split'
p1791
I2
sg27
g28
sS'max_depth'
p1792
NsS'class_weight'
p1793
NsbsS'n_jobs'
p1794
Nsg1781
F0
sS'verbose'
p1795
I0
sg1790
NsS'bootstrap'
p1796
I00
sS'oob_score'
p1797
I00
sg1783
I1
sS'n_estimators'
p1798
I100
sg1791
I2
sg1789
F0
sg1787
g1788
sS'estimator_params'
p1799
(S'criterion'
S'max_depth'
S'min_samples_split'
S'min_samples_leaf'
S'min_weight_fraction_leaf'
S'max_features'
S'max_leaf_nodes'
S'min_impurity_decrease'
S'min_impurity_split'
S'random_state'
tp1800
sg1786
Nsg1782
Nsg1784
g1785
sg27
g28
sg1792
Nsg1793
Nsbag38
(g39
(I0
tS'b'
tRp1801
(I1
(I3
tg41
(S'f8'
I0
I1
tRp1802
(I3
S'<'
NNNI-1
I-1
I0
tbI00
S']t\xd1E\x17]\xec?]t\xd1E\x17]\xec?\x12w\xc4\x1dqG\xec?'
tbaa(lp1803
I1048
ag3
(g4
g5
NtRp1804
(dp1805
S'warm_start'
p1806
I00
sS'base_estimator'
p1807
g3
(g10
g5
NtRp1808
(dp1809
S'presort'
p1810
I00
sS'splitter'
p1811
S'random'
p1812
sS'min_impurity_decrease'
p1813
F0
sS'min_impurity_split'
p1814
NsS'min_samples_leaf'
p1815
I1
sS'max_features'
p1816
S'auto'
p1817
sS'random_state'
p1818
NsS'criterion'
p1819
S'gini'
p1820
sS'min_weight_fraction_leaf'
p1821
F0
sS'max_leaf_nodes'
p1822
NsS'min_samples_split'
p1823
I2
sg27
g28
sS'max_depth'
p1824
NsS'class_weight'
p1825
NsbsS'n_jobs'
p1826
Nsg1813
F0
sS'verbose'
p1827
I0
sg1822
NsS'bootstrap'
p1828
I00
sS'oob_score'
p1829
I00
sg1815
I1
sS'n_estimators'
p1830
I100
sg1823
I2
sg1821
F0
sg1819
g1820
sS'estimator_params'
p1831
(S'criterion'
S'max_depth'
S'min_samples_split'
S'min_samples_leaf'
S'min_weight_fraction_leaf'
S'max_features'
S'max_leaf_nodes'
S'min_impurity_decrease'
S'min_impurity_split'
S'random_state'
tp1832
sg1818
Nsg1814
Nsg1816
g1817
sg27
g28
sg1824
Nsg1825
Nsbag38
(g39
(I0
tS'b'
tRp1833
(I1
(I3
tg41
(S'f8'
I0
I1
tRp1834
(I3
S'<'
NNNI-1
I-1
I0
tbI00
S'\x00\x00\x00\x00\x00\x00\xe8?\x00\x00\x00\x00\x00\x00\xe8?\x83\xbe\xa0/\xe8\x0b\xea?'
tbaa(lp1835
I684
ag3
(g4
g5
NtRp1836
(dp1837
S'warm_start'
p1838
I00
sS'base_estimator'
p1839
g3
(g10
g5
NtRp1840
(dp1841
S'presort'
p1842
I00
sS'splitter'
p1843
S'random'
p1844
sS'min_impurity_decrease'
p1845
F0
sS'min_impurity_split'
p1846
NsS'min_samples_leaf'
p1847
I1
sS'max_features'
p1848
S'auto'
p1849
sS'random_state'
p1850
NsS'criterion'
p1851
S'gini'
p1852
sS'min_weight_fraction_leaf'
p1853
F0
sS'max_leaf_nodes'
p1854
NsS'min_samples_split'
p1855
I2
sg27
g28
sS'max_depth'
p1856
NsS'class_weight'
p1857
NsbsS'n_jobs'
p1858
Nsg1845
F0
sS'verbose'
p1859
I0
sg1854
NsS'bootstrap'
p1860
I00
sS'oob_score'
p1861
I00
sg1847
I1
sS'n_estimators'
p1862
I100
sg1855
I2
sg1853
F0
sg1851
g1852
sS'estimator_params'
p1863
(S'criterion'
S'max_depth'
S'min_samples_split'
S'min_samples_leaf'
S'min_weight_fraction_leaf'
S'max_features'
S'max_leaf_nodes'
S'min_impurity_decrease'
S'min_impurity_split'
S'random_state'
tp1864
sg1850
Nsg1846
Nsg1848
g1849
sg27
g28
sg1856
Nsg1857
Nsbag38
(g39
(I0
tS'b'
tRp1865
(I1
(I3
tg41
(S'f8'
I0
I1
tRp1866
(I3
S'<'
NNNI-1
I-1
I0
tbI00
S'\xb6`\x0b\xb6`\x0b\xe6?\xc4\x1dqG\xdc\x11\xe7?eMYS\xd6\x94\xe5?'
tbaa(lp1867
I195
ag3
(g4
g5
NtRp1868
(dp1869
S'warm_start'
p1870
I00
sS'base_estimator'
p1871
g3
(g10
g5
NtRp1872
(dp1873
S'presort'
p1874
I00
sS'splitter'
p1875
S'random'
p1876
sS'min_impurity_decrease'
p1877
F0
sS'min_impurity_split'
p1878
NsS'min_samples_leaf'
p1879
I1
sS'max_features'
p1880
S'auto'
p1881
sS'random_state'
p1882
NsS'criterion'
p1883
S'gini'
p1884
sS'min_weight_fraction_leaf'
p1885
F0
sS'max_leaf_nodes'
p1886
NsS'min_samples_split'
p1887
I2
sg27
g28
sS'max_depth'
p1888
NsS'class_weight'
p1889
NsbsS'n_jobs'
p1890
Nsg1877
F0
sS'verbose'
p1891
I0
sg1886
NsS'bootstrap'
p1892
I00
sS'oob_score'
p1893
I00
sg1879
I1
sS'n_estimators'
p1894
I100
sg1887
I2
sg1885
F0
sg1883
g1884
sS'estimator_params'
p1895
(S'criterion'
S'max_depth'
S'min_samples_split'
S'min_samples_leaf'
S'min_weight_fraction_leaf'
S'max_features'
S'max_leaf_nodes'
S'min_impurity_decrease'
S'min_impurity_split'
S'random_state'
tp1896
sg1882
Nsg1878
Nsg1880
g1881
sg27
g28
sg1888
Nsg1889
Nsbag38
(g39
(I0
tS'b'
tRp1897
(I1
(I3
tg41
(S'f8'
I0
I1
tRp1898
(I3
S'<'
NNNI-1
I-1
I0
tbI00
S'/\xba\xe8\xa2\x8b.\xea?/\xba\xe8\xa2\x8b.\xea?$\xee\x88;\xe2\x8e\xe8?'
tbaa(lp1899
I324
ag3
(g4
g5
NtRp1900
(dp1901
S'warm_start'
p1902
I00
sS'base_estimator'
p1903
g3
(g10
g5
NtRp1904
(dp1905
S'presort'
p1906
I00
sS'splitter'
p1907
S'random'
p1908
sS'min_impurity_decrease'
p1909
F0
sS'min_impurity_split'
p1910
NsS'min_samples_leaf'
p1911
I1
sS'max_features'
p1912
S'auto'
p1913
sS'random_state'
p1914
NsS'criterion'
p1915
S'gini'
p1916
sS'min_weight_fraction_leaf'
p1917
F0
sS'max_leaf_nodes'
p1918
NsS'min_samples_split'
p1919
I2
sg27
g28
sS'max_depth'
p1920
NsS'class_weight'
p1921
NsbsS'n_jobs'
p1922
Nsg1909
F0
sS'verbose'
p1923
I0
sg1918
NsS'bootstrap'
p1924
I00
sS'oob_score'
p1925
I00
sg1911
I1
sS'n_estimators'
p1926
I100
sg1919
I2
sg1917
F0
sg1915
g1916
sS'estimator_params'
p1927
(S'criterion'
S'max_depth'
S'min_samples_split'
S'min_samples_leaf'
S'min_weight_fraction_leaf'
S'max_features'
S'max_leaf_nodes'
S'min_impurity_decrease'
S'min_impurity_split'
S'random_state'
tp1928
sg1914
Nsg1910
Nsg1912
g1913
sg27
g28
sg1920
Nsg1921
Nsbag38
(g39
(I0
tS'b'
tRp1929
(I1
(I3
tg41
(S'f8'
I0
I1
tRp1930
(I3
S'<'
NNNI-1
I-1
I0
tbI00
S'\x17]t\xd1E\x17\xed?\x17]t\xd1E\x17\xed?A_\xd0\x17\xf4\x05\xed?'
tbaa(lp1931
I422
ag3
(g4
g5
NtRp1932
(dp1933
S'warm_start'
p1934
I00
sS'base_estimator'
p1935
g3
(g10
g5
NtRp1936
(dp1937
S'presort'
p1938
I00
sS'splitter'
p1939
S'random'
p1940
sS'min_impurity_decrease'
p1941
F0
sS'min_impurity_split'
p1942
NsS'min_samples_leaf'
p1943
I1
sS'max_features'
p1944
S'auto'
p1945
sS'random_state'
p1946
NsS'criterion'
p1947
S'gini'
p1948
sS'min_weight_fraction_leaf'
p1949
F0
sS'max_leaf_nodes'
p1950
NsS'min_samples_split'
p1951
I2
sg27
g28
sS'max_depth'
p1952
NsS'class_weight'
p1953
NsbsS'n_jobs'
p1954
Nsg1941
F0
sS'verbose'
p1955
I0
sg1950
NsS'bootstrap'
p1956
I00
sS'oob_score'
p1957
I00
sg1943
I1
sS'n_estimators'
p1958
I100
sg1951
I2
sg1949
F0
sg1947
g1948
sS'estimator_params'
p1959
(S'criterion'
S'max_depth'
S'min_samples_split'
S'min_samples_leaf'
S'min_weight_fraction_leaf'
S'max_features'
S'max_leaf_nodes'
S'min_impurity_decrease'
S'min_impurity_split'
S'random_state'
tp1960
sg1946
Nsg1942
Nsg1944
g1945
sg27
g28
sg1952
Nsg1953
Nsbag38
(g39
(I0
tS'b'
tRp1961
(I1
(I3
tg41
(S'f8'
I0
I1
tRp1962
(I3
S'<'
NNNI-1
I-1
I0
tbI00
S'\xf5I\x9f\xf4I\x9f\xe4?\xc4\x1dqG\xdc\x11\xe7?\xc4\x1dqG\xdc\x11\xe7?'
tbaa(lp1963
I945
ag3
(g4
g5
NtRp1964
(dp1965
S'warm_start'
p1966
I00
sS'base_estimator'
p1967
g3
(g10
g5
NtRp1968
(dp1969
S'presort'
p1970
I00
sS'splitter'
p1971
S'random'
p1972
sS'min_impurity_decrease'
p1973
F0
sS'min_impurity_split'
p1974
NsS'min_samples_leaf'
p1975
I1
sS'max_features'
p1976
S'auto'
p1977
sS'random_state'
p1978
NsS'criterion'
p1979
S'gini'
p1980
sS'min_weight_fraction_leaf'
p1981
F0
sS'max_leaf_nodes'
p1982
NsS'min_samples_split'
p1983
I2
sg27
g28
sS'max_depth'
p1984
NsS'class_weight'
p1985
NsbsS'n_jobs'
p1986
Nsg1973
F0
sS'verbose'
p1987
I0
sg1982
NsS'bootstrap'
p1988
I00
sS'oob_score'
p1989
I00
sg1975
I1
sS'n_estimators'
p1990
I100
sg1983
I2
sg1981
F0
sg1979
g1980
sS'estimator_params'
p1991
(S'criterion'
S'max_depth'
S'min_samples_split'
S'min_samples_leaf'
S'min_weight_fraction_leaf'
S'max_features'
S'max_leaf_nodes'
S'min_impurity_decrease'
S'min_impurity_split'
S'random_state'
tp1992
sg1978
Nsg1974
Nsg1976
g1977
sg27
g28
sg1984
Nsg1985
Nsbag38
(g39
(I0
tS'b'
tRp1993
(I1
(I3
tg41
(S'f8'
I0
I1
tRp1994
(I3
S'<'
NNNI-1
I-1
I0
tbI00
S'\xa3\x8b.\xba\xe8\xa2\xeb?\xa3\x8b.\xba\xe8\xa2\xeb?\xe2\x8e\xb8#\xee\x88\xeb?'
tbaa(lp1995
I349
ag3
(g4
g5
NtRp1996
(dp1997
S'warm_start'
p1998
I00
sS'base_estimator'
p1999
g3
(g10
g5
NtRp2000
(dp2001
S'presort'
p2002
I00
sS'splitter'
p2003
S'random'
p2004
sS'min_impurity_decrease'
p2005
F0
sS'min_impurity_split'
p2006
NsS'min_samples_leaf'
p2007
I1
sS'max_features'
p2008
S'auto'
p2009
sS'random_state'
p2010
NsS'criterion'
p2011
S'gini'
p2012
sS'min_weight_fraction_leaf'
p2013
F0
sS'max_leaf_nodes'
p2014
NsS'min_samples_split'
p2015
I2
sg27
g28
sS'max_depth'
p2016
NsS'class_weight'
p2017
NsbsS'n_jobs'
p2018
Nsg2005
F0
sS'verbose'
p2019
I0
sg2014
NsS'bootstrap'
p2020
I00
sS'oob_score'
p2021
I00
sg2007
I1
sS'n_estimators'
p2022
I100
sg2015
I2
sg2013
F0
sg2011
g2012
sS'estimator_params'
p2023
(S'criterion'
S'max_depth'
S'min_samples_split'
S'min_samples_leaf'
S'min_weight_fraction_leaf'
S'max_features'
S'max_leaf_nodes'
S'min_impurity_decrease'
S'min_impurity_split'
S'random_state'
tp2024
sg2010
Nsg2006
Nsg2008
g2009
sg27
g28
sg2016
Nsg2017
Nsbag38
(g39
(I0
tS'b'
tRp2025
(I1
(I3
tg41
(S'f8'
I0
I1
tRp2026
(I3
S'<'
NNNI-1
I-1
I0
tbI00
S'\xe9\xa2\x8b.\xba\xe8\xea?\xe9\xa2\x8b.\xba\xe8\xea?\xe2\x8e\xb8#\xee\x88\xeb?'
tbaa(lp2027
I201
ag3
(g4
g5
NtRp2028
(dp2029
S'warm_start'
p2030
I00
sS'base_estimator'
p2031
g3
(g10
g5
NtRp2032
(dp2033
S'presort'
p2034
I00
sS'splitter'
p2035
S'random'
p2036
sS'min_impurity_decrease'
p2037
F0
sS'min_impurity_split'
p2038
NsS'min_samples_leaf'
p2039
I1
sS'max_features'
p2040
S'auto'
p2041
sS'random_state'
p2042
NsS'criterion'
p2043
S'gini'
p2044
sS'min_weight_fraction_leaf'
p2045
F0
sS'max_leaf_nodes'
p2046
NsS'min_samples_split'
p2047
I2
sg27
g28
sS'max_depth'
p2048
NsS'class_weight'
p2049
NsbsS'n_jobs'
p2050
Nsg2037
F0
sS'verbose'
p2051
I0
sg2046
NsS'bootstrap'
p2052
I00
sS'oob_score'
p2053
I00
sg2039
I1
sS'n_estimators'
p2054
I100
sg2047
I2
sg2045
F0
sg2043
g2044
sS'estimator_params'
p2055
(S'criterion'
S'max_depth'
S'min_samples_split'
S'min_samples_leaf'
S'min_weight_fraction_leaf'
S'max_features'
S'max_leaf_nodes'
S'min_impurity_decrease'
S'min_impurity_split'
S'random_state'
tp2056
sg2042
Nsg2038
Nsg2040
g2041
sg27
g28
sg2048
Nsg2049
Nsbag38
(g39
(I0
tS'b'
tRp2057
(I1
(I3
tg41
(S'f8'
I0
I1
tRp2058
(I3
S'<'
NNNI-1
I-1
I0
tbI00
S"\xd2'}\xd2'}\xe2?w\xc4\x1dqG\xdc\xe1?\xd6\x945eMY\xe3?"
tbaa(lp2059
I773
ag3
(g4
g5
NtRp2060
(dp2061
S'warm_start'
p2062
I00
sS'base_estimator'
p2063
g3
(g10
g5
NtRp2064
(dp2065
S'presort'
p2066
I00
sS'splitter'
p2067
S'random'
p2068
sS'min_impurity_decrease'
p2069
F0
sS'min_impurity_split'
p2070
NsS'min_samples_leaf'
p2071
I1
sS'max_features'
p2072
S'auto'
p2073
sS'random_state'
p2074
NsS'criterion'
p2075
S'gini'
p2076
sS'min_weight_fraction_leaf'
p2077
F0
sS'max_leaf_nodes'
p2078
NsS'min_samples_split'
p2079
I2
sg27
g28
sS'max_depth'
p2080
NsS'class_weight'
p2081
NsbsS'n_jobs'
p2082
Nsg2069
F0
sS'verbose'
p2083
I0
sg2078
NsS'bootstrap'
p2084
I00
sS'oob_score'
p2085
I00
sg2071
I1
sS'n_estimators'
p2086
I100
sg2079
I2
sg2077
F0
sg2075
g2076
sS'estimator_params'
p2087
(S'criterion'
S'max_depth'
S'min_samples_split'
S'min_samples_leaf'
S'min_weight_fraction_leaf'
S'max_features'
S'max_leaf_nodes'
S'min_impurity_decrease'
S'min_impurity_split'
S'random_state'
tp2088
sg2074
Nsg2070
Nsg2072
g2073
sg27
g28
sg2080
Nsg2081
Nsbag38
(g39
(I0
tS'b'
tRp2089
(I1
(I3
tg41
(S'f8'
I0
I1
tRp2090
(I3
S'<'
NNNI-1
I-1
I0
tbI00
S']t\xd1E\x17]\xec?]t\xd1E\x17]\xec?\x12w\xc4\x1dqG\xec?'
tbaa(lp2091
I1073
ag3
(g4
g5
NtRp2092
(dp2093
S'warm_start'
p2094
I00
sS'base_estimator'
p2095
g3
(g10
g5
NtRp2096
(dp2097
S'presort'
p2098
I00
sS'splitter'
p2099
S'random'
p2100
sS'min_impurity_decrease'
p2101
F0
sS'min_impurity_split'
p2102
NsS'min_samples_leaf'
p2103
I1
sS'max_features'
p2104
S'auto'
p2105
sS'random_state'
p2106
NsS'criterion'
p2107
S'gini'
p2108
sS'min_weight_fraction_leaf'
p2109
F0
sS'max_leaf_nodes'
p2110
NsS'min_samples_split'
p2111
I2
sg27
g28
sS'max_depth'
p2112
NsS'class_weight'
p2113
NsbsS'n_jobs'
p2114
Nsg2101
F0
sS'verbose'
p2115
I0
sg2110
NsS'bootstrap'
p2116
I00
sS'oob_score'
p2117
I00
sg2103
I1
sS'n_estimators'
p2118
I100
sg2111
I2
sg2109
F0
sg2107
g2108
sS'estimator_params'
p2119
(S'criterion'
S'max_depth'
S'min_samples_split'
S'min_samples_leaf'
S'min_weight_fraction_leaf'
S'max_features'
S'max_leaf_nodes'
S'min_impurity_decrease'
S'min_impurity_split'
S'random_state'
tp2120
sg2106
Nsg2102
Nsg2104
g2105
sg27
g28
sg2112
Nsg2113
Nsbag38
(g39
(I0
tS'b'
tRp2121
(I1
(I3
tg41
(S'f8'
I0
I1
tRp2122
(I3
S'<'
NNNI-1
I-1
I0
tbI00
S'\x17]t\xd1E\x17\xe5?\x17]t\xd1E\x17\xe5?eMYS\xd6\x94\xe5?'
tbaa(lp2123
I1030
ag3
(g4
g5
NtRp2124
(dp2125
S'warm_start'
p2126
I00
sS'base_estimator'
p2127
g3
(g10
g5
NtRp2128
(dp2129
S'presort'
p2130
I00
sS'splitter'
p2131
S'random'
p2132
sS'min_impurity_decrease'
p2133
F0
sS'min_impurity_split'
p2134
NsS'min_samples_leaf'
p2135
I1
sS'max_features'
p2136
S'auto'
p2137
sS'random_state'
p2138
NsS'criterion'
p2139
S'gini'
p2140
sS'min_weight_fraction_leaf'
p2141
F0
sS'max_leaf_nodes'
p2142
NsS'min_samples_split'
p2143
I2
sg27
g28
sS'max_depth'
p2144
NsS'class_weight'
p2145
NsbsS'n_jobs'
p2146
Nsg2133
F0
sS'verbose'
p2147
I0
sg2142
NsS'bootstrap'
p2148
I00
sS'oob_score'
p2149
I00
sg2135
I1
sS'n_estimators'
p2150
I100
sg2143
I2
sg2141
F0
sg2139
g2140
sS'estimator_params'
p2151
(S'criterion'
S'max_depth'
S'min_samples_split'
S'min_samples_leaf'
S'min_weight_fraction_leaf'
S'max_features'
S'max_leaf_nodes'
S'min_impurity_decrease'
S'min_impurity_split'
S'random_state'
tp2152
sg2138
Nsg2134
Nsg2136
g2137
sg27
g28
sg2144
Nsg2145
Nsbag38
(g39
(I0
tS'b'
tRp2153
(I1
(I3
tg41
(S'f8'
I0
I1
tRp2154
(I3
S'<'
NNNI-1
I-1
I0
tbI00
S'wwwwww\xe7?\xf4\x05}A_\xd0\xe7?\xf4\x05}A_\xd0\xe7?'
tbaa(lp2155
I1004
ag3
(g4
g5
NtRp2156
(dp2157
S'warm_start'
p2158
I00
sS'base_estimator'
p2159
g3
(g10
g5
NtRp2160
(dp2161
S'presort'
p2162
I00
sS'splitter'
p2163
S'random'
p2164
sS'min_impurity_decrease'
p2165
F0
sS'min_impurity_split'
p2166
NsS'min_samples_leaf'
p2167
I1
sS'max_features'
p2168
S'auto'
p2169
sS'random_state'
p2170
NsS'criterion'
p2171
S'gini'
p2172
sS'min_weight_fraction_leaf'
p2173
F0
sS'max_leaf_nodes'
p2174
NsS'min_samples_split'
p2175
I2
sg27
g28
sS'max_depth'
p2176
NsS'class_weight'
p2177
NsbsS'n_jobs'
p2178
Nsg2165
F0
sS'verbose'
p2179
I0
sg2174
NsS'bootstrap'
p2180
I00
sS'oob_score'
p2181
I00
sg2167
I1
sS'n_estimators'
p2182
I100
sg2175
I2
sg2173
F0
sg2171
g2172
sS'estimator_params'
p2183
(S'criterion'
S'max_depth'
S'min_samples_split'
S'min_samples_leaf'
S'min_weight_fraction_leaf'
S'max_features'
S'max_leaf_nodes'
S'min_impurity_decrease'
S'min_impurity_split'
S'random_state'
tp2184
sg2170
Nsg2166
Nsg2168
g2169
sg27
g28
sg2176
Nsg2177
Nsbag38
(g39
(I0
tS'b'
tRp2185
(I1
(I3
tg41
(S'f8'
I0
I1
tRp2186
(I3
S'<'
NNNI-1
I-1
I0
tbI00
S'\x9a\x99\x99\x99\x99\x99\xe9?\x83\xbe\xa0/\xe8\x0b\xea?\x83\xbe\xa0/\xe8\x0b\xea?'
tbaa(lp2187
I636
ag3
(g4
g5
NtRp2188
(dp2189
S'warm_start'
p2190
I00
sS'base_estimator'
p2191
g3
(g10
g5
NtRp2192
(dp2193
S'presort'
p2194
I00
sS'splitter'
p2195
S'random'
p2196
sS'min_impurity_decrease'
p2197
F0
sS'min_impurity_split'
p2198
NsS'min_samples_leaf'
p2199
I1
sS'max_features'
p2200
S'auto'
p2201
sS'random_state'
p2202
NsS'criterion'
p2203
S'gini'
p2204
sS'min_weight_fraction_leaf'
p2205
F0
sS'max_leaf_nodes'
p2206
NsS'min_samples_split'
p2207
I2
sg27
g28
sS'max_depth'
p2208
NsS'class_weight'
p2209
NsbsS'n_jobs'
p2210
Nsg2197
F0
sS'verbose'
p2211
I0
sg2206
NsS'bootstrap'
p2212
I00
sS'oob_score'
p2213
I00
sg2199
I1
sS'n_estimators'
p2214
I100
sg2207
I2
sg2205
F0
sg2203
g2204
sS'estimator_params'
p2215
(S'criterion'
S'max_depth'
S'min_samples_split'
S'min_samples_leaf'
S'min_weight_fraction_leaf'
S'max_features'
S'max_leaf_nodes'
S'min_impurity_decrease'
S'min_impurity_split'
S'random_state'
tp2216
sg2202
Nsg2198
Nsg2200
g2201
sg27
g28
sg2208
Nsg2209
Nsbag38
(g39
(I0
tS'b'
tRp2217
(I1
(I3
tg41
(S'f8'
I0
I1
tRp2218
(I3
S'<'
NNNI-1
I-1
I0
tbI00
S'\x9a\x99\x99\x99\x99\x99\xe9?\x83\xbe\xa0/\xe8\x0b\xea?\x83\xbe\xa0/\xe8\x0b\xea?'
tbaa(lp2219
I150
ag3
(g4
g5
NtRp2220
(dp2221
S'warm_start'
p2222
I00
sS'base_estimator'
p2223
g3
(g10
g5
NtRp2224
(dp2225
S'presort'
p2226
I00
sS'splitter'
p2227
S'random'
p2228
sS'min_impurity_decrease'
p2229
F0
sS'min_impurity_split'
p2230
NsS'min_samples_leaf'
p2231
I1
sS'max_features'
p2232
S'auto'
p2233
sS'random_state'
p2234
NsS'criterion'
p2235
S'gini'
p2236
sS'min_weight_fraction_leaf'
p2237
F0
sS'max_leaf_nodes'
p2238
NsS'min_samples_split'
p2239
I2
sg27
g28
sS'max_depth'
p2240
NsS'class_weight'
p2241
NsbsS'n_jobs'
p2242
Nsg2229
F0
sS'verbose'
p2243
I0
sg2238
NsS'bootstrap'
p2244
I00
sS'oob_score'
p2245
I00
sg2231
I1
sS'n_estimators'
p2246
I100
sg2239
I2
sg2237
F0
sg2235
g2236
sS'estimator_params'
p2247
(S'criterion'
S'max_depth'
S'min_samples_split'
S'min_samples_leaf'
S'min_weight_fraction_leaf'
S'max_features'
S'max_leaf_nodes'
S'min_impurity_decrease'
S'min_impurity_split'
S'random_state'
tp2248
sg2234
Nsg2230
Nsg2232
g2233
sg27
g28
sg2240
Nsg2241
Nsbag38
(g39
(I0
tS'b'
tRp2249
(I1
(I3
tg41
(S'f8'
I0
I1
tRp2250
(I3
S'<'
NNNI-1
I-1
I0
tbI00
S'\xba\xe8\xa2\x8b.\xba\xe8?\xe9\xa2\x8b.\xba\xe8\xea?\xb3\xa6\xac)k\xca\xea?'
tbaa(lp2251
I338
ag3
(g4
g5
NtRp2252
(dp2253
S'warm_start'
p2254
I00
sS'base_estimator'
p2255
g3
(g10
g5
NtRp2256
(dp2257
S'presort'
p2258
I00
sS'splitter'
p2259
S'random'
p2260
sS'min_impurity_decrease'
p2261
F0
sS'min_impurity_split'
p2262
NsS'min_samples_leaf'
p2263
I1
sS'max_features'
p2264
S'auto'
p2265
sS'random_state'
p2266
NsS'criterion'
p2267
S'gini'
p2268
sS'min_weight_fraction_leaf'
p2269
F0
sS'max_leaf_nodes'
p2270
NsS'min_samples_split'
p2271
I2
sg27
g28
sS'max_depth'
p2272
NsS'class_weight'
p2273
NsbsS'n_jobs'
p2274
Nsg2261
F0
sS'verbose'
p2275
I0
sg2270
NsS'bootstrap'
p2276
I00
sS'oob_score'
p2277
I00
sg2263
I1
sS'n_estimators'
p2278
I100
sg2271
I2
sg2269
F0
sg2267
g2268
sS'estimator_params'
p2279
(S'criterion'
S'max_depth'
S'min_samples_split'
S'min_samples_leaf'
S'min_weight_fraction_leaf'
S'max_features'
S'max_leaf_nodes'
S'min_impurity_decrease'
S'min_impurity_split'
S'random_state'
tp2280
sg2266
Nsg2262
Nsg2264
g2265
sg27
g28
sg2272
Nsg2273
Nsbag38
(g39
(I0
tS'b'
tRp2281
(I1
(I3
tg41
(S'f8'
I0
I1
tRp2282
(I3
S'<'
NNNI-1
I-1
I0
tbI00
S'\xd1E\x17]t\xd1\xe5?\xd1E\x17]t\xd1\xe5?eMYS\xd6\x94\xe5?'
tbaa(lp2283
I688
ag3
(g4
g5
NtRp2284
(dp2285
S'warm_start'
p2286
I00
sS'base_estimator'
p2287
g3
(g10
g5
NtRp2288
(dp2289
S'presort'
p2290
I00
sS'splitter'
p2291
S'random'
p2292
sS'min_impurity_decrease'
p2293
F0
sS'min_impurity_split'
p2294
NsS'min_samples_leaf'
p2295
I1
sS'max_features'
p2296
S'auto'
p2297
sS'random_state'
p2298
NsS'criterion'
p2299
S'gini'
p2300
sS'min_weight_fraction_leaf'
p2301
F0
sS'max_leaf_nodes'
p2302
NsS'min_samples_split'
p2303
I2
sg27
g28
sS'max_depth'
p2304
NsS'class_weight'
p2305
NsbsS'n_jobs'
p2306
Nsg2293
F0
sS'verbose'
p2307
I0
sg2302
NsS'bootstrap'
p2308
I00
sS'oob_score'
p2309
I00
sg2295
I1
sS'n_estimators'
p2310
I100
sg2303
I2
sg2301
F0
sg2299
g2300
sS'estimator_params'
p2311
(S'criterion'
S'max_depth'
S'min_samples_split'
S'min_samples_leaf'
S'min_weight_fraction_leaf'
S'max_features'
S'max_leaf_nodes'
S'min_impurity_decrease'
S'min_impurity_split'
S'random_state'
tp2312
sg2298
Nsg2294
Nsg2296
g2297
sg27
g28
sg2304
Nsg2305
Nsbag38
(g39
(I0
tS'b'
tRp2313
(I1
(I3
tg41
(S'f8'
I0
I1
tRp2314
(I3
S'<'
NNNI-1
I-1
I0
tbI00
S't\xd1E\x17]t\xe9?\xba\xe8\xa2\x8b.\xba\xe8?S\xd6\x945eM\xe9?'
tbaa(lp2315
I755
ag3
(g4
g5
NtRp2316
(dp2317
S'warm_start'
p2318
I00
sS'base_estimator'
p2319
g3
(g10
g5
NtRp2320
(dp2321
S'presort'
p2322
I00
sS'splitter'
p2323
S'random'
p2324
sS'min_impurity_decrease'
p2325
F0
sS'min_impurity_split'
p2326
NsS'min_samples_leaf'
p2327
I1
sS'max_features'
p2328
S'auto'
p2329
sS'random_state'
p2330
NsS'criterion'
p2331
S'gini'
p2332
sS'min_weight_fraction_leaf'
p2333
F0
sS'max_leaf_nodes'
p2334
NsS'min_samples_split'
p2335
I2
sg27
g28
sS'max_depth'
p2336
NsS'class_weight'
p2337
NsbsS'n_jobs'
p2338
Nsg2325
F0
sS'verbose'
p2339
I0
sg2334
NsS'bootstrap'
p2340
I00
sS'oob_score'
p2341
I00
sg2327
I1
sS'n_estimators'
p2342
I100
sg2335
I2
sg2333
F0
sg2331
g2332
sS'estimator_params'
p2343
(S'criterion'
S'max_depth'
S'min_samples_split'
S'min_samples_leaf'
S'min_weight_fraction_leaf'
S'max_features'
S'max_leaf_nodes'
S'min_impurity_decrease'
S'min_impurity_split'
S'random_state'
tp2344
sg2330
Nsg2326
Nsg2328
g2329
sg27
g28
sg2336
Nsg2337
Nsbag38
(g39
(I0
tS'b'
tRp2345
(I1
(I3
tg41
(S'f8'
I0
I1
tRp2346
(I3
S'<'
NNNI-1
I-1
I0
tbI00
S'\xfa\xa4O\xfa\xa4O\xea?\x83\xbe\xa0/\xe8\x0b\xea?\xb3\xa6\xac)k\xca\xea?'
tbaa(lp2347
I547
ag3
(g4
g5
NtRp2348
(dp2349
S'warm_start'
p2350
I00
sS'base_estimator'
p2351
g3
(g10
g5
NtRp2352
(dp2353
S'presort'
p2354
I00
sS'splitter'
p2355
S'random'
p2356
sS'min_impurity_decrease'
p2357
F0
sS'min_impurity_split'
p2358
NsS'min_samples_leaf'
p2359
I1
sS'max_features'
p2360
S'auto'
p2361
sS'random_state'
p2362
NsS'criterion'
p2363
S'gini'
p2364
sS'min_weight_fraction_leaf'
p2365
F0
sS'max_leaf_nodes'
p2366
NsS'min_samples_split'
p2367
I2
sg27
g28
sS'max_depth'
p2368
NsS'class_weight'
p2369
NsbsS'n_jobs'
p2370
Nsg2357
F0
sS'verbose'
p2371
I0
sg2366
NsS'bootstrap'
p2372
I00
sS'oob_score'
p2373
I00
sg2359
I1
sS'n_estimators'
p2374
I100
sg2367
I2
sg2365
F0
sg2363
g2364
sS'estimator_params'
p2375
(S'criterion'
S'max_depth'
S'min_samples_split'
S'min_samples_leaf'
S'min_weight_fraction_leaf'
S'max_features'
S'max_leaf_nodes'
S'min_impurity_decrease'
S'min_impurity_split'
S'random_state'
tp2376
sg2362
Nsg2358
Nsg2360
g2361
sg27
g28
sg2368
Nsg2369
Nsbag38
(g39
(I0
tS'b'
tRp2377
(I1
(I3
tg41
(S'f8'
I0
I1
tRp2378
(I3
S'<'
NNNI-1
I-1
I0
tbI00
S'\xbc\xbb\xbb\xbb\xbb\xbb\xeb?\x12w\xc4\x1dqG\xec?\x12w\xc4\x1dqG\xec?'
tbaa(lp2379
I48
ag3
(g4
g5
NtRp2380
(dp2381
S'warm_start'
p2382
I00
sS'base_estimator'
p2383
g3
(g10
g5
NtRp2384
(dp2385
S'presort'
p2386
I00
sS'splitter'
p2387
S'random'
p2388
sS'min_impurity_decrease'
p2389
F0
sS'min_impurity_split'
p2390
NsS'min_samples_leaf'
p2391
I1
sS'max_features'
p2392
S'auto'
p2393
sS'random_state'
p2394
NsS'criterion'
p2395
S'gini'
p2396
sS'min_weight_fraction_leaf'
p2397
F0
sS'max_leaf_nodes'
p2398
NsS'min_samples_split'
p2399
I2
sg27
g28
sS'max_depth'
p2400
NsS'class_weight'
p2401
NsbsS'n_jobs'
p2402
Nsg2389
F0
sS'verbose'
p2403
I0
sg2398
NsS'bootstrap'
p2404
I00
sS'oob_score'
p2405
I00
sg2391
I1
sS'n_estimators'
p2406
I100
sg2399
I2
sg2397
F0
sg2395
g2396
sS'estimator_params'
p2407
(S'criterion'
S'max_depth'
S'min_samples_split'
S'min_samples_leaf'
S'min_weight_fraction_leaf'
S'max_features'
S'max_leaf_nodes'
S'min_impurity_decrease'
S'min_impurity_split'
S'random_state'
tp2408
sg2394
Nsg2390
Nsg2392
g2393
sg27
g28
sg2400
Nsg2401
Nsbag38
(g39
(I0
tS'b'
tRp2409
(I1
(I3
tg41
(S'f8'
I0
I1
tRp2410
(I3
S'<'
NNNI-1
I-1
I0
tbI00
S'UUUUUU\xe5?eMYS\xd6\x94\xe5?6eMYS\xd6\xe4?'
tbaa.